00000000  55                push bp
00000001  89E5              mov bp,sp
00000003  83E4F0            and sp,byte -0x10
00000006  83EC20            sub sp,byte +0x20
00000009  C74424040B        mov word [si+0x24],0xb04
0000000E  0000              add [bx+si],al
00000010  00C7              add bh,al
00000012  0424              add al,0x24
00000014  0000              add [bx+si],al
00000016  0000              add [bx+si],al
00000018  E88900            call word 0xa4
0000001B  0000              add [bx+si],al
0000001D  C7042430          mov word [si],0x3024
00000021  8800              mov [bx+si],al
00000023  00E8              add al,ch
00000025  AD                lodsw
00000026  0000              add [bx+si],al
00000028  00E8              add al,ch
0000002A  0901              or [bx+di],ax
0000002C  0000              add [bx+si],al
0000002E  C74424040C        mov word [si+0x24],0xc04
00000033  0000              add [bx+si],al
00000035  00C7              add bh,al
00000037  0424              add al,0x24
00000039  0000              add [bx+si],al
0000003B  0000              add [bx+si],al
0000003D  E86400            call word 0xa4
00000040  0000              add [bx+si],al
00000042  C7042438          mov word [si],0x3824
00000046  8800              mov [bx+si],al
00000048  00E8              add al,ch
0000004A  8800              mov [bx+si],al
0000004C  0000              add [bx+si],al
0000004E  E80B02            call word 0x25c
00000051  0000              add [bx+si],al
00000053  C74424040D        mov word [si+0x24],0xd04
00000058  0000              add [bx+si],al
0000005A  00C7              add bh,al
0000005C  0424              add al,0x24
0000005E  0000              add [bx+si],al
00000060  0000              add [bx+si],al
00000062  E83F00            call word 0xa4
00000065  0000              add [bx+si],al
00000067  C7042443          mov word [si],0x4324
0000006B  8800              mov [bx+si],al
0000006D  00E8              add al,ch
0000006F  6300              arpl [bx+si],ax
00000071  0000              add [bx+si],al
00000073  C74424040E        mov word [si+0x24],0xe04
00000078  0000              add [bx+si],al
0000007A  00C7              add bh,al
0000007C  0424              add al,0x24
0000007E  0000              add [bx+si],al
00000080  0000              add [bx+si],al
00000082  E81F00            call word 0xa4
00000085  0000              add [bx+si],al
00000087  B80A00            mov ax,0xa
0000008A  0000              add [bx+si],al
0000008C  B90000            mov cx,0x0
0000008F  0000              add [bx+si],al
00000091  99                cwd
00000092  F7F9              idiv cx
00000094  894424            mov [si+0x24],ax
00000097  1CC7              sbb al,0xc7
00000099  0424              add al,0x24
0000009B  52                push dx
0000009C  8800              mov [bx+si],al
0000009E  00E8              add al,ch
000000A0  3200              xor al,[bx+si]
000000A2  0000              add [bx+si],al
000000A4  EBFE              jmp short 0xa4
000000A6  55                push bp
000000A7  89E5              mov bp,sp
000000A9  53                push bx
000000AA  8B4508            mov ax,[di+0x8]
000000AD  8B550C            mov dx,[di+0xc]
000000B0  89D3              mov bx,dx
000000B2  60                pushaw
000000B3  C7056495          mov word [di],0x9564
000000B7  0000              add [bx+si],al
000000B9  00800B00          add [bx+si+0xb],al
000000BD  B102              mov cl,0x2
000000BF  F6E1              mul cl
000000C1  6689C1            mov ecx,eax
000000C4  B0A0              mov al,0xa0
000000C6  F6E3              mul bl
000000C8  6601C8            add eax,ecx
000000CB  660105            add [di],eax
000000CE  6495              fs xchg ax,bp
000000D0  0000              add [bx+si],al
000000D2  61                popaw
000000D3  5B                pop bx
000000D4  5D                pop bp
000000D5  C3                ret
000000D6  55                push bp
000000D7  89E5              mov bp,sp
000000D9  56                push si
000000DA  8B4508            mov ax,[di+0x8]
000000DD  89C6              mov si,ax
000000DF  60                pushaw
000000E0  AC                lodsb
000000E1  3C00              cmp al,0x0
000000E3  7415              jz 0xfa
000000E5  8B1D              mov bx,[di]
000000E7  6495              fs xchg ax,bp
000000E9  0000              add [bx+si],al
000000EB  8803              mov [bp+di],al
000000ED  43                inc bx
000000EE  C6030F            mov byte [bp+di],0xf
000000F1  43                inc bx
000000F2  891D              mov [di],bx
000000F4  6495              fs xchg ax,bp
000000F6  0000              add [bx+si],al
000000F8  EBE6              jmp short 0xe0
000000FA  61                popaw
000000FB  5E                pop si
000000FC  5D                pop bp
000000FD  C3                ret
000000FE  55                push bp
000000FF  89E5              mov bp,sp
00000101  83EC14            sub sp,byte +0x14
00000104  8B4508            mov ax,[di+0x8]
00000107  668945EC          mov [di-0x14],eax
0000010B  0F                db 0x0f
0000010C  B745              mov bh,0x45
0000010E  EC                in al,dx
0000010F  89C2              mov dx,ax
00000111  EC                in al,dx
00000112  8845FF            mov [di-0x1],al
00000115  0FB645FF          movzx ax,[di-0x1]
00000119  C9                leave
0000011A  C3                ret
0000011B  55                push bp
0000011C  89E5              mov bp,sp
0000011E  83EC08            sub sp,byte +0x8
00000121  8B5508            mov dx,[di+0x8]
00000124  8B450C            mov ax,[di+0xc]
00000127  8855FC            mov [di-0x4],dl
0000012A  668945F8          mov [di-0x8],eax
0000012E  0F                db 0x0f
0000012F  B745              mov bh,0x45
00000131  F8                clc
00000132  89C2              mov dx,ax
00000134  EE                out dx,al
00000135  C9                leave
00000136  C3                ret
00000137  55                push bp
00000138  89E5              mov bp,sp
0000013A  66C70500A80000    mov dword [di],0xa800
00000141  FF07              inc word [bx]
00000143  B800A0            mov ax,0xa000
00000146  0000              add [bx+si],al
00000148  A304A8            mov [0xa804],ax
0000014B  0000              add [bx+si],al
0000014D  0F011D            lidt [di]
00000150  00A80000          add [bx+si+0x0],ch
00000154  5D                pop bp
00000155  C3                ret
00000156  55                push bp
00000157  89E5              mov bp,sp
00000159  83EC08            sub sp,byte +0x8
0000015C  8B5510            mov dx,[di+0x10]
0000015F  8B4514            mov ax,[di+0x14]
00000162  668955FC          mov [di-0x4],edx
00000166  8845F8            mov [di-0x8],al
00000169  837D0C00          cmp word [di+0xc],byte +0x0
0000016D  0F95C0            setnz al
00000170  0FB6C0            movzx ax,al
00000173  89C2              mov dx,ax
00000175  8B4508            mov ax,[di+0x8]
00000178  668914            mov [si],edx
0000017B  C500              lds ax,[bx+si]
0000017D  A00000            mov al,[0x0]
00000180  8B4508            mov ax,[di+0x8]
00000183  0F                db 0x0f
00000184  B755              mov bh,0x55
00000186  FC                cld
00000187  668914            mov [si],edx
0000018A  C502              lds ax,[bp+si]
0000018C  A00000            mov al,[0x0]
0000018F  8B4508            mov ax,[di+0x8]
00000192  C604C5            mov byte [si],0xc5
00000195  04A0              add al,0xa0
00000197  0000              add [bx+si],al
00000199  008B4508          add [bp+di+0x845],cl
0000019D  0FB655F8          movzx dx,[di-0x8]
000001A1  8814              mov [si],dl
000001A3  C505              lds ax,[di]
000001A5  A00000            mov al,[0x0]
000001A8  8B450C            mov ax,[di+0xc]
000001AB  C1E810            shr ax,byte 0x10
000001AE  0FB6D0            movzx dx,al
000001B1  8B4508            mov ax,[di+0x8]
000001B4  668914            mov [si],edx
000001B7  C506A000          lds ax,[0xa0]
000001BB  00C9              add cl,cl
000001BD  C3                ret
000001BE  55                push bp
000001BF  89E5              mov bp,sp
000001C1  5D                pop bp
000001C2  C3                ret
000001C3  55                push bp
000001C4  89E5              mov bp,sp
000001C6  5D                pop bp
000001C7  C3                ret
000001C8  55                push bp
000001C9  89E5              mov bp,sp
000001CB  5D                pop bp
000001CC  C3                ret
000001CD  55                push bp
000001CE  89E5              mov bp,sp
000001D0  5D                pop bp
000001D1  C3                ret
000001D2  55                push bp
000001D3  89E5              mov bp,sp
000001D5  5D                pop bp
000001D6  C3                ret
000001D7  55                push bp
000001D8  89E5              mov bp,sp
000001DA  5D                pop bp
000001DB  C3                ret
000001DC  55                push bp
000001DD  89E5              mov bp,sp
000001DF  5D                pop bp
000001E0  C3                ret
000001E1  55                push bp
000001E2  89E5              mov bp,sp
000001E4  5D                pop bp
000001E5  C3                ret
000001E6  55                push bp
000001E7  89E5              mov bp,sp
000001E9  5D                pop bp
000001EA  C3                ret
000001EB  55                push bp
000001EC  89E5              mov bp,sp
000001EE  5D                pop bp
000001EF  C3                ret
000001F0  55                push bp
000001F1  89E5              mov bp,sp
000001F3  5D                pop bp
000001F4  C3                ret
000001F5  55                push bp
000001F6  89E5              mov bp,sp
000001F8  5D                pop bp
000001F9  C3                ret
000001FA  55                push bp
000001FB  89E5              mov bp,sp
000001FD  5D                pop bp
000001FE  C3                ret
000001FF  55                push bp
00000200  89E5              mov bp,sp
00000202  5D                pop bp
00000203  C3                ret
00000204  55                push bp
00000205  89E5              mov bp,sp
00000207  5D                pop bp
00000208  C3                ret
00000209  55                push bp
0000020A  89E5              mov bp,sp
0000020C  5D                pop bp
0000020D  C3                ret
0000020E  55                push bp
0000020F  89E5              mov bp,sp
00000211  5D                pop bp
00000212  C3                ret
00000213  55                push bp
00000214  89E5              mov bp,sp
00000216  5D                pop bp
00000217  C3                ret
00000218  55                push bp
00000219  89E5              mov bp,sp
0000021B  5D                pop bp
0000021C  C3                ret
0000021D  55                push bp
0000021E  89E5              mov bp,sp
00000220  5D                pop bp
00000221  C3                ret
00000222  55                push bp
00000223  89E5              mov bp,sp
00000225  5D                pop bp
00000226  C3                ret
00000227  55                push bp
00000228  89E5              mov bp,sp
0000022A  5D                pop bp
0000022B  C3                ret
0000022C  55                push bp
0000022D  89E5              mov bp,sp
0000022F  5D                pop bp
00000230  C3                ret
00000231  55                push bp
00000232  89E5              mov bp,sp
00000234  5D                pop bp
00000235  C3                ret
00000236  55                push bp
00000237  89E5              mov bp,sp
00000239  5D                pop bp
0000023A  C3                ret
0000023B  55                push bp
0000023C  89E5              mov bp,sp
0000023E  5D                pop bp
0000023F  C3                ret
00000240  55                push bp
00000241  89E5              mov bp,sp
00000243  5D                pop bp
00000244  C3                ret
00000245  55                push bp
00000246  89E5              mov bp,sp
00000248  5D                pop bp
00000249  C3                ret
0000024A  55                push bp
0000024B  89E5              mov bp,sp
0000024D  5D                pop bp
0000024E  C3                ret
0000024F  55                push bp
00000250  89E5              mov bp,sp
00000252  5D                pop bp
00000253  C3                ret
00000254  55                push bp
00000255  89E5              mov bp,sp
00000257  5D                pop bp
00000258  C3                ret
00000259  55                push bp
0000025A  89E5              mov bp,sp
0000025C  5D                pop bp
0000025D  C3                ret
0000025E  55                push bp
0000025F  89E5              mov bp,sp
00000261  83EC18            sub sp,byte +0x18
00000264  A11087            mov ax,[0x8710]
00000267  0000              add [bx+si],al
00000269  C744240C8E        mov word [si+0x24],0x8e0c
0000026E  0000              add [bx+si],al
00000270  00C7              add bh,al
00000272  44                inc sp
00000273  2408              and al,0x8
00000275  0800              or [bx+si],al
00000277  0000              add [bx+si],al
00000279  894424            mov [si+0x24],ax
0000027C  04C7              add al,0xc7
0000027E  0424              add al,0x24
00000280  0000              add [bx+si],al
00000282  0000              add [bx+si],al
00000284  E8CDFE            call word 0x154
00000287  FF                db 0xff
00000288  FFA11987          jmp word [bx+di-0x78e7]
0000028C  0000              add [bx+si],al
0000028E  C744240C8E        mov word [si+0x24],0x8e0c
00000293  0000              add [bx+si],al
00000295  00C7              add bh,al
00000297  44                inc sp
00000298  2408              and al,0x8
0000029A  0800              or [bx+si],al
0000029C  0000              add [bx+si],al
0000029E  894424            mov [si+0x24],ax
000002A1  04C7              add al,0xc7
000002A3  0424              add al,0x24
000002A5  0100              add [bx+si],ax
000002A7  0000              add [bx+si],al
000002A9  E8A8FE            call word 0x154
000002AC  FF                db 0xff
000002AD  FFA12287          jmp word [bx+di-0x78de]
000002B1  0000              add [bx+si],al
000002B3  C744240C8E        mov word [si+0x24],0x8e0c
000002B8  0000              add [bx+si],al
000002BA  00C7              add bh,al
000002BC  44                inc sp
000002BD  2408              and al,0x8
000002BF  0800              or [bx+si],al
000002C1  0000              add [bx+si],al
000002C3  894424            mov [si+0x24],ax
000002C6  04C7              add al,0xc7
000002C8  0424              add al,0x24
000002CA  0200              add al,[bx+si]
000002CC  0000              add [bx+si],al
000002CE  E883FE            call word 0x154
000002D1  FF                db 0xff
000002D2  FFA12B87          jmp word [bx+di-0x78d5]
000002D6  0000              add [bx+si],al
000002D8  C744240C8E        mov word [si+0x24],0x8e0c
000002DD  0000              add [bx+si],al
000002DF  00C7              add bh,al
000002E1  44                inc sp
000002E2  2408              and al,0x8
000002E4  0800              or [bx+si],al
000002E6  0000              add [bx+si],al
000002E8  894424            mov [si+0x24],ax
000002EB  04C7              add al,0xc7
000002ED  0424              add al,0x24
000002EF  0300              add ax,[bx+si]
000002F1  0000              add [bx+si],al
000002F3  E85EFE            call word 0x154
000002F6  FF                db 0xff
000002F7  FFA13487          jmp word [bx+di-0x78cc]
000002FB  0000              add [bx+si],al
000002FD  C744240C8E        mov word [si+0x24],0x8e0c
00000302  0000              add [bx+si],al
00000304  00C7              add bh,al
00000306  44                inc sp
00000307  2408              and al,0x8
00000309  0800              or [bx+si],al
0000030B  0000              add [bx+si],al
0000030D  894424            mov [si+0x24],ax
00000310  04C7              add al,0xc7
00000312  0424              add al,0x24
00000314  0400              add al,0x0
00000316  0000              add [bx+si],al
00000318  E839FE            call word 0x154
0000031B  FF                db 0xff
0000031C  FFA13D87          jmp word [bx+di-0x78c3]
00000320  0000              add [bx+si],al
00000322  C744240C8E        mov word [si+0x24],0x8e0c
00000327  0000              add [bx+si],al
00000329  00C7              add bh,al
0000032B  44                inc sp
0000032C  2408              and al,0x8
0000032E  0800              or [bx+si],al
00000330  0000              add [bx+si],al
00000332  894424            mov [si+0x24],ax
00000335  04C7              add al,0xc7
00000337  0424              add al,0x24
00000339  050000            add ax,0x0
0000033C  00E8              add al,ch
0000033E  14FE              adc al,0xfe
00000340  FF                db 0xff
00000341  FFA14687          jmp word [bx+di-0x78ba]
00000345  0000              add [bx+si],al
00000347  C744240C8E        mov word [si+0x24],0x8e0c
0000034C  0000              add [bx+si],al
0000034E  00C7              add bh,al
00000350  44                inc sp
00000351  2408              and al,0x8
00000353  0800              or [bx+si],al
00000355  0000              add [bx+si],al
00000357  894424            mov [si+0x24],ax
0000035A  04C7              add al,0xc7
0000035C  0424              add al,0x24
0000035E  06                push es
0000035F  0000              add [bx+si],al
00000361  00E8              add al,ch
00000363  EF                out dx,ax
00000364  FD                std
00000365  FF                db 0xff
00000366  FFA14F87          jmp word [bx+di-0x78b1]
0000036A  0000              add [bx+si],al
0000036C  C744240C8E        mov word [si+0x24],0x8e0c
00000371  0000              add [bx+si],al
00000373  00C7              add bh,al
00000375  44                inc sp
00000376  2408              and al,0x8
00000378  0800              or [bx+si],al
0000037A  0000              add [bx+si],al
0000037C  894424            mov [si+0x24],ax
0000037F  04C7              add al,0xc7
00000381  0424              add al,0x24
00000383  07                pop es
00000384  0000              add [bx+si],al
00000386  00E8              add al,ch
00000388  CAFDFF            retf 0xfffd
0000038B  FFA15887          jmp word [bx+di-0x78a8]
0000038F  0000              add [bx+si],al
00000391  C744240C8E        mov word [si+0x24],0x8e0c
00000396  0000              add [bx+si],al
00000398  00C7              add bh,al
0000039A  44                inc sp
0000039B  2408              and al,0x8
0000039D  0800              or [bx+si],al
0000039F  0000              add [bx+si],al
000003A1  894424            mov [si+0x24],ax
000003A4  04C7              add al,0xc7
000003A6  0424              add al,0x24
000003A8  0800              or [bx+si],al
000003AA  0000              add [bx+si],al
000003AC  E8A5FD            call word 0x154
000003AF  FF                db 0xff
000003B0  FFA16187          jmp word [bx+di-0x789f]
000003B4  0000              add [bx+si],al
000003B6  C744240C8E        mov word [si+0x24],0x8e0c
000003BB  0000              add [bx+si],al
000003BD  00C7              add bh,al
000003BF  44                inc sp
000003C0  2408              and al,0x8
000003C2  0800              or [bx+si],al
000003C4  0000              add [bx+si],al
000003C6  894424            mov [si+0x24],ax
000003C9  04C7              add al,0xc7
000003CB  0424              add al,0x24
000003CD  0900              or [bx+si],ax
000003CF  0000              add [bx+si],al
000003D1  E880FD            call word 0x154
000003D4  FF                db 0xff
000003D5  FFA16A87          jmp word [bx+di-0x7896]
000003D9  0000              add [bx+si],al
000003DB  C744240C8E        mov word [si+0x24],0x8e0c
000003E0  0000              add [bx+si],al
000003E2  00C7              add bh,al
000003E4  44                inc sp
000003E5  2408              and al,0x8
000003E7  0800              or [bx+si],al
000003E9  0000              add [bx+si],al
000003EB  894424            mov [si+0x24],ax
000003EE  04C7              add al,0xc7
000003F0  0424              add al,0x24
000003F2  0A00              or al,[bx+si]
000003F4  0000              add [bx+si],al
000003F6  E85BFD            call word 0x154
000003F9  FF                db 0xff
000003FA  FFA17387          jmp word [bx+di-0x788d]
000003FE  0000              add [bx+si],al
00000400  C744240C8E        mov word [si+0x24],0x8e0c
00000405  0000              add [bx+si],al
00000407  00C7              add bh,al
00000409  44                inc sp
0000040A  2408              and al,0x8
0000040C  0800              or [bx+si],al
0000040E  0000              add [bx+si],al
00000410  894424            mov [si+0x24],ax
00000413  04C7              add al,0xc7
00000415  0424              add al,0x24
00000417  0B00              or ax,[bx+si]
00000419  0000              add [bx+si],al
0000041B  E836FD            call word 0x154
0000041E  FF                db 0xff
0000041F  FFA17C87          jmp word [bx+di-0x7884]
00000423  0000              add [bx+si],al
00000425  C744240C8E        mov word [si+0x24],0x8e0c
0000042A  0000              add [bx+si],al
0000042C  00C7              add bh,al
0000042E  44                inc sp
0000042F  2408              and al,0x8
00000431  0800              or [bx+si],al
00000433  0000              add [bx+si],al
00000435  894424            mov [si+0x24],ax
00000438  04C7              add al,0xc7
0000043A  0424              add al,0x24
0000043C  0C00              or al,0x0
0000043E  0000              add [bx+si],al
00000440  E811FD            call word 0x154
00000443  FF                db 0xff
00000444  FFA18587          jmp word [bx+di-0x787b]
00000448  0000              add [bx+si],al
0000044A  C744240C8E        mov word [si+0x24],0x8e0c
0000044F  0000              add [bx+si],al
00000451  00C7              add bh,al
00000453  44                inc sp
00000454  2408              and al,0x8
00000456  0800              or [bx+si],al
00000458  0000              add [bx+si],al
0000045A  894424            mov [si+0x24],ax
0000045D  04C7              add al,0xc7
0000045F  0424              add al,0x24
00000461  0D0000            or ax,0x0
00000464  00E8              add al,ch
00000466  EC                in al,dx
00000467  FC                cld
00000468  FF                db 0xff
00000469  FFA18E87          jmp word [bx+di-0x7872]
0000046D  0000              add [bx+si],al
0000046F  C744240C8E        mov word [si+0x24],0x8e0c
00000474  0000              add [bx+si],al
00000476  00C7              add bh,al
00000478  44                inc sp
00000479  2408              and al,0x8
0000047B  0800              or [bx+si],al
0000047D  0000              add [bx+si],al
0000047F  894424            mov [si+0x24],ax
00000482  04C7              add al,0xc7
00000484  0424              add al,0x24
00000486  0E                push cs
00000487  0000              add [bx+si],al
00000489  00E8              add al,ch
0000048B  C7                db 0xc7
0000048C  FC                cld
0000048D  FF                db 0xff
0000048E  FFA19787          jmp word [bx+di-0x7869]
00000492  0000              add [bx+si],al
00000494  C744240C8E        mov word [si+0x24],0x8e0c
00000499  0000              add [bx+si],al
0000049B  00C7              add bh,al
0000049D  44                inc sp
0000049E  2408              and al,0x8
000004A0  0800              or [bx+si],al
000004A2  0000              add [bx+si],al
000004A4  894424            mov [si+0x24],ax
000004A7  04C7              add al,0xc7
000004A9  0424              add al,0x24
000004AB  0F0000            sldt [bx+si]
000004AE  00E8              add al,ch
000004B0  A2FCFF            mov [0xfffc],al
000004B3  FFA1A087          jmp word [bx+di-0x7860]
000004B7  0000              add [bx+si],al
000004B9  C744240C8E        mov word [si+0x24],0x8e0c
000004BE  0000              add [bx+si],al
000004C0  00C7              add bh,al
000004C2  44                inc sp
000004C3  2408              and al,0x8
000004C5  0800              or [bx+si],al
000004C7  0000              add [bx+si],al
000004C9  894424            mov [si+0x24],ax
000004CC  04C7              add al,0xc7
000004CE  0424              add al,0x24
000004D0  1000              adc [bx+si],al
000004D2  0000              add [bx+si],al
000004D4  E87DFC            call word 0x154
000004D7  FF                db 0xff
000004D8  FFA1A987          jmp word [bx+di-0x7857]
000004DC  0000              add [bx+si],al
000004DE  C744240C8E        mov word [si+0x24],0x8e0c
000004E3  0000              add [bx+si],al
000004E5  00C7              add bh,al
000004E7  44                inc sp
000004E8  2408              and al,0x8
000004EA  0800              or [bx+si],al
000004EC  0000              add [bx+si],al
000004EE  894424            mov [si+0x24],ax
000004F1  04C7              add al,0xc7
000004F3  0424              add al,0x24
000004F5  1100              adc [bx+si],ax
000004F7  0000              add [bx+si],al
000004F9  E858FC            call word 0x154
000004FC  FF                db 0xff
000004FD  FFA1B287          jmp word [bx+di-0x784e]
00000501  0000              add [bx+si],al
00000503  C744240C8E        mov word [si+0x24],0x8e0c
00000508  0000              add [bx+si],al
0000050A  00C7              add bh,al
0000050C  44                inc sp
0000050D  2408              and al,0x8
0000050F  0800              or [bx+si],al
00000511  0000              add [bx+si],al
00000513  894424            mov [si+0x24],ax
00000516  04C7              add al,0xc7
00000518  0424              add al,0x24
0000051A  1200              adc al,[bx+si]
0000051C  0000              add [bx+si],al
0000051E  E833FC            call word 0x154
00000521  FF                db 0xff
00000522  FFA1BB87          jmp word [bx+di-0x7845]
00000526  0000              add [bx+si],al
00000528  C744240C8E        mov word [si+0x24],0x8e0c
0000052D  0000              add [bx+si],al
0000052F  00C7              add bh,al
00000531  44                inc sp
00000532  2408              and al,0x8
00000534  0800              or [bx+si],al
00000536  0000              add [bx+si],al
00000538  894424            mov [si+0x24],ax
0000053B  04C7              add al,0xc7
0000053D  0424              add al,0x24
0000053F  1300              adc ax,[bx+si]
00000541  0000              add [bx+si],al
00000543  E80EFC            call word 0x154
00000546  FF                db 0xff
00000547  FFA1C487          jmp word [bx+di-0x783c]
0000054B  0000              add [bx+si],al
0000054D  C744240C8E        mov word [si+0x24],0x8e0c
00000552  0000              add [bx+si],al
00000554  00C7              add bh,al
00000556  44                inc sp
00000557  2408              and al,0x8
00000559  0800              or [bx+si],al
0000055B  0000              add [bx+si],al
0000055D  894424            mov [si+0x24],ax
00000560  04C7              add al,0xc7
00000562  0424              add al,0x24
00000564  1400              adc al,0x0
00000566  0000              add [bx+si],al
00000568  E8E9FB            call word 0x154
0000056B  FF                db 0xff
0000056C  FFA1CD87          jmp word [bx+di-0x7833]
00000570  0000              add [bx+si],al
00000572  C744240C8E        mov word [si+0x24],0x8e0c
00000577  0000              add [bx+si],al
00000579  00C7              add bh,al
0000057B  44                inc sp
0000057C  2408              and al,0x8
0000057E  0800              or [bx+si],al
00000580  0000              add [bx+si],al
00000582  894424            mov [si+0x24],ax
00000585  04C7              add al,0xc7
00000587  0424              add al,0x24
00000589  150000            adc ax,0x0
0000058C  00E8              add al,ch
0000058E  C4                db 0xc4
0000058F  FB                sti
00000590  FF                db 0xff
00000591  FFA1D687          jmp word [bx+di-0x782a]
00000595  0000              add [bx+si],al
00000597  C744240C8E        mov word [si+0x24],0x8e0c
0000059C  0000              add [bx+si],al
0000059E  00C7              add bh,al
000005A0  44                inc sp
000005A1  2408              and al,0x8
000005A3  0800              or [bx+si],al
000005A5  0000              add [bx+si],al
000005A7  894424            mov [si+0x24],ax
000005AA  04C7              add al,0xc7
000005AC  0424              add al,0x24
000005AE  16                push ss
000005AF  0000              add [bx+si],al
000005B1  00E8              add al,ch
000005B3  9F                lahf
000005B4  FB                sti
000005B5  FF                db 0xff
000005B6  FFA1DF87          jmp word [bx+di-0x7821]
000005BA  0000              add [bx+si],al
000005BC  C744240C8E        mov word [si+0x24],0x8e0c
000005C1  0000              add [bx+si],al
000005C3  00C7              add bh,al
000005C5  44                inc sp
000005C6  2408              and al,0x8
000005C8  0800              or [bx+si],al
000005CA  0000              add [bx+si],al
000005CC  894424            mov [si+0x24],ax
000005CF  04C7              add al,0xc7
000005D1  0424              add al,0x24
000005D3  17                pop ss
000005D4  0000              add [bx+si],al
000005D6  00E8              add al,ch
000005D8  7AFB              jpe 0x5d5
000005DA  FF                db 0xff
000005DB  FFA1E887          jmp word [bx+di-0x7818]
000005DF  0000              add [bx+si],al
000005E1  C744240C8E        mov word [si+0x24],0x8e0c
000005E6  0000              add [bx+si],al
000005E8  00C7              add bh,al
000005EA  44                inc sp
000005EB  2408              and al,0x8
000005ED  0800              or [bx+si],al
000005EF  0000              add [bx+si],al
000005F1  894424            mov [si+0x24],ax
000005F4  04C7              add al,0xc7
000005F6  0424              add al,0x24
000005F8  1800              sbb [bx+si],al
000005FA  0000              add [bx+si],al
000005FC  E855FB            call word 0x154
000005FF  FF                db 0xff
00000600  FFA1F187          jmp word [bx+di-0x780f]
00000604  0000              add [bx+si],al
00000606  C744240C8E        mov word [si+0x24],0x8e0c
0000060B  0000              add [bx+si],al
0000060D  00C7              add bh,al
0000060F  44                inc sp
00000610  2408              and al,0x8
00000612  0800              or [bx+si],al
00000614  0000              add [bx+si],al
00000616  894424            mov [si+0x24],ax
00000619  04C7              add al,0xc7
0000061B  0424              add al,0x24
0000061D  1900              sbb [bx+si],ax
0000061F  0000              add [bx+si],al
00000621  E830FB            call word 0x154
00000624  FF                db 0xff
00000625  FFA1FA87          jmp word [bx+di-0x7806]
00000629  0000              add [bx+si],al
0000062B  C744240C8E        mov word [si+0x24],0x8e0c
00000630  0000              add [bx+si],al
00000632  00C7              add bh,al
00000634  44                inc sp
00000635  2408              and al,0x8
00000637  0800              or [bx+si],al
00000639  0000              add [bx+si],al
0000063B  894424            mov [si+0x24],ax
0000063E  04C7              add al,0xc7
00000640  0424              add al,0x24
00000642  1A00              sbb al,[bx+si]
00000644  0000              add [bx+si],al
00000646  E80BFB            call word 0x154
00000649  FF                db 0xff
0000064A  FFA10388          jmp word [bx+di-0x77fd]
0000064E  0000              add [bx+si],al
00000650  C744240C8E        mov word [si+0x24],0x8e0c
00000655  0000              add [bx+si],al
00000657  00C7              add bh,al
00000659  44                inc sp
0000065A  2408              and al,0x8
0000065C  0800              or [bx+si],al
0000065E  0000              add [bx+si],al
00000660  894424            mov [si+0x24],ax
00000663  04C7              add al,0xc7
00000665  0424              add al,0x24
00000667  1B00              sbb ax,[bx+si]
00000669  0000              add [bx+si],al
0000066B  E8E6FA            call word 0x154
0000066E  FF                db 0xff
0000066F  FFA10C88          jmp word [bx+di-0x77f4]
00000673  0000              add [bx+si],al
00000675  C744240C8E        mov word [si+0x24],0x8e0c
0000067A  0000              add [bx+si],al
0000067C  00C7              add bh,al
0000067E  44                inc sp
0000067F  2408              and al,0x8
00000681  0800              or [bx+si],al
00000683  0000              add [bx+si],al
00000685  894424            mov [si+0x24],ax
00000688  04C7              add al,0xc7
0000068A  0424              add al,0x24
0000068C  1C00              sbb al,0x0
0000068E  0000              add [bx+si],al
00000690  E8C1FA            call word 0x154
00000693  FF                db 0xff
00000694  FFA11588          jmp word [bx+di-0x77eb]
00000698  0000              add [bx+si],al
0000069A  C744240C8E        mov word [si+0x24],0x8e0c
0000069F  0000              add [bx+si],al
000006A1  00C7              add bh,al
000006A3  44                inc sp
000006A4  2408              and al,0x8
000006A6  0800              or [bx+si],al
000006A8  0000              add [bx+si],al
000006AA  894424            mov [si+0x24],ax
000006AD  04C7              add al,0xc7
000006AF  0424              add al,0x24
000006B1  1D0000            sbb ax,0x0
000006B4  00E8              add al,ch
000006B6  9C                pushfw
000006B7  FA                cli
000006B8  FF                db 0xff
000006B9  FFA11E88          jmp word [bx+di-0x77e2]
000006BD  0000              add [bx+si],al
000006BF  C744240C8E        mov word [si+0x24],0x8e0c
000006C4  0000              add [bx+si],al
000006C6  00C7              add bh,al
000006C8  44                inc sp
000006C9  2408              and al,0x8
000006CB  0800              or [bx+si],al
000006CD  0000              add [bx+si],al
000006CF  894424            mov [si+0x24],ax
000006D2  04C7              add al,0xc7
000006D4  0424              add al,0x24
000006D6  1E                push ds
000006D7  0000              add [bx+si],al
000006D9  00E8              add al,ch
000006DB  77FA              ja 0x6d7
000006DD  FF                db 0xff
000006DE  FFA12788          jmp word [bx+di-0x77d9]
000006E2  0000              add [bx+si],al
000006E4  C744240C8E        mov word [si+0x24],0x8e0c
000006E9  0000              add [bx+si],al
000006EB  00C7              add bh,al
000006ED  44                inc sp
000006EE  2408              and al,0x8
000006F0  0800              or [bx+si],al
000006F2  0000              add [bx+si],al
000006F4  894424            mov [si+0x24],ax
000006F7  04C7              add al,0xc7
000006F9  0424              add al,0x24
000006FB  1F                pop ds
000006FC  0000              add [bx+si],al
000006FE  00E8              add al,ch
00000700  52                push dx
00000701  FA                cli
00000702  FF                db 0xff
00000703  FFC9              dec cx
00000705  C3                ret
00000706  6690              xchg eax,eax
00000708  6690              xchg eax,eax
0000070A  6690              xchg eax,eax
0000070C  6690              xchg eax,eax
0000070E  6690              xchg eax,eax
00000710  FA                cli
00000711  60                pushaw
00000712  E8A7FA            call word 0x1bc
00000715  FF                db 0xff
00000716  FF61CF            jmp word [bx+di-0x31]
00000719  FA                cli
0000071A  60                pushaw
0000071B  E8A3FA            call word 0x1c1
0000071E  FF                db 0xff
0000071F  FF61CF            jmp word [bx+di-0x31]
00000722  FA                cli
00000723  60                pushaw
00000724  E89FFA            call word 0x1c6
00000727  FF                db 0xff
00000728  FF61CF            jmp word [bx+di-0x31]
0000072B  FA                cli
0000072C  60                pushaw
0000072D  E89BFA            call word 0x1cb
00000730  FF                db 0xff
00000731  FF61CF            jmp word [bx+di-0x31]
00000734  FA                cli
00000735  60                pushaw
00000736  E897FA            call word 0x1d0
00000739  FF                db 0xff
0000073A  FF61CF            jmp word [bx+di-0x31]
0000073D  FA                cli
0000073E  60                pushaw
0000073F  E893FA            call word 0x1d5
00000742  FF                db 0xff
00000743  FF61CF            jmp word [bx+di-0x31]
00000746  FA                cli
00000747  60                pushaw
00000748  E88FFA            call word 0x1da
0000074B  FF                db 0xff
0000074C  FF61CF            jmp word [bx+di-0x31]
0000074F  FA                cli
00000750  60                pushaw
00000751  E88BFA            call word 0x1df
00000754  FF                db 0xff
00000755  FF61CF            jmp word [bx+di-0x31]
00000758  FA                cli
00000759  60                pushaw
0000075A  E887FA            call word 0x1e4
0000075D  FF                db 0xff
0000075E  FF61CF            jmp word [bx+di-0x31]
00000761  FA                cli
00000762  60                pushaw
00000763  E883FA            call word 0x1e9
00000766  FF                db 0xff
00000767  FF61CF            jmp word [bx+di-0x31]
0000076A  FA                cli
0000076B  60                pushaw
0000076C  E87FFA            call word 0x1ee
0000076F  FF                db 0xff
00000770  FF61CF            jmp word [bx+di-0x31]
00000773  FA                cli
00000774  60                pushaw
00000775  E87BFA            call word 0x1f3
00000778  FF                db 0xff
00000779  FF61CF            jmp word [bx+di-0x31]
0000077C  FA                cli
0000077D  60                pushaw
0000077E  E877FA            call word 0x1f8
00000781  FF                db 0xff
00000782  FF61CF            jmp word [bx+di-0x31]
00000785  FA                cli
00000786  60                pushaw
00000787  E873FA            call word 0x1fd
0000078A  FF                db 0xff
0000078B  FF61CF            jmp word [bx+di-0x31]
0000078E  FA                cli
0000078F  60                pushaw
00000790  E86FFA            call word 0x202
00000793  FF                db 0xff
00000794  FF61CF            jmp word [bx+di-0x31]
00000797  FA                cli
00000798  60                pushaw
00000799  E86BFA            call word 0x207
0000079C  FF                db 0xff
0000079D  FF61CF            jmp word [bx+di-0x31]
000007A0  FA                cli
000007A1  60                pushaw
000007A2  E867FA            call word 0x20c
000007A5  FF                db 0xff
000007A6  FF61CF            jmp word [bx+di-0x31]
000007A9  FA                cli
000007AA  60                pushaw
000007AB  E863FA            call word 0x211
000007AE  FF                db 0xff
000007AF  FF61CF            jmp word [bx+di-0x31]
000007B2  FA                cli
000007B3  60                pushaw
000007B4  E85FFA            call word 0x216
000007B7  FF                db 0xff
000007B8  FF61CF            jmp word [bx+di-0x31]
000007BB  FA                cli
000007BC  60                pushaw
000007BD  E85BFA            call word 0x21b
000007C0  FF                db 0xff
000007C1  FF61CF            jmp word [bx+di-0x31]
000007C4  FA                cli
000007C5  60                pushaw
000007C6  E857FA            call word 0x220
000007C9  FF                db 0xff
000007CA  FF61CF            jmp word [bx+di-0x31]
000007CD  FA                cli
000007CE  60                pushaw
000007CF  E853FA            call word 0x225
000007D2  FF                db 0xff
000007D3  FF61CF            jmp word [bx+di-0x31]
000007D6  FA                cli
000007D7  60                pushaw
000007D8  E84FFA            call word 0x22a
000007DB  FF                db 0xff
000007DC  FF61CF            jmp word [bx+di-0x31]
000007DF  FA                cli
000007E0  60                pushaw
000007E1  E84BFA            call word 0x22f
000007E4  FF                db 0xff
000007E5  FF61CF            jmp word [bx+di-0x31]
000007E8  FA                cli
000007E9  60                pushaw
000007EA  E847FA            call word 0x234
000007ED  FF                db 0xff
000007EE  FF61CF            jmp word [bx+di-0x31]
000007F1  FA                cli
000007F2  60                pushaw
000007F3  E843FA            call word 0x239
000007F6  FF                db 0xff
000007F7  FF61CF            jmp word [bx+di-0x31]
000007FA  FA                cli
000007FB  60                pushaw
000007FC  E83FFA            call word 0x23e
000007FF  FF                db 0xff
00000800  FF61CF            jmp word [bx+di-0x31]
00000803  FA                cli
00000804  60                pushaw
00000805  E83BFA            call word 0x243
00000808  FF                db 0xff
00000809  FF61CF            jmp word [bx+di-0x31]
0000080C  FA                cli
0000080D  60                pushaw
0000080E  E837FA            call word 0x248
00000811  FF                db 0xff
00000812  FF61CF            jmp word [bx+di-0x31]
00000815  FA                cli
00000816  60                pushaw
00000817  E833FA            call word 0x24d
0000081A  FF                db 0xff
0000081B  FF61CF            jmp word [bx+di-0x31]
0000081E  FA                cli
0000081F  60                pushaw
00000820  E82FFA            call word 0x252
00000823  FF                db 0xff
00000824  FF61CF            jmp word [bx+di-0x31]
00000827  FA                cli
00000828  60                pushaw
00000829  E82BFA            call word 0x257
0000082C  FF                db 0xff
0000082D  FF61CF            jmp word [bx+di-0x31]
00000830  48                dec ax
00000831  656C              gs insb
00000833  6C                insb
00000834  6F                outsw
00000835  204300            and [bp+di+0x0],al
00000838  4C                dec sp
00000839  6F                outsw
0000083A  61                popaw
0000083B  646564206964      and [fs:bx+di+0x64],ch
00000841  7400              jz 0x843
00000843  49                dec cx
00000844  6E                outsb
00000845  7374              jnc 0x8bb
00000847  61                popaw
00000848  6C                insb
00000849  6C                insb
0000084A  6564206973        and [fs:bx+di+0x73],ch
0000084F  7273              jc 0x8c4
00000851  005265            add [bp+si+0x65],dl
00000854  656E              gs outsb
00000856  61                popaw
00000857  626C65            bound bp,[si+0x65]
0000085A  6420696E          and [fs:bx+di+0x6e],ch
0000085E  7374              jnc 0x8d4
00000860  657272            gs jc 0x8d5
00000863  7570              jnz 0x8d5
00000865  7473              jz 0x8da
00000867  006690            add [bp-0x70],ah
0000086A  6690              xchg eax,eax
0000086C  6690              xchg eax,eax
0000086E  6690              xchg eax,eax
00000870  6690              xchg eax,eax
00000872  6690              xchg eax,eax
00000874  6690              xchg eax,eax
00000876  6690              xchg eax,eax
00000878  6690              xchg eax,eax
0000087A  6690              xchg eax,eax
0000087C  6690              xchg eax,eax
0000087E  6690              xchg eax,eax
00000880  6690              xchg eax,eax
00000882  6690              xchg eax,eax
00000884  6690              xchg eax,eax
00000886  6690              xchg eax,eax
00000888  6690              xchg eax,eax
0000088A  6690              xchg eax,eax
0000088C  6690              xchg eax,eax
0000088E  6690              xchg eax,eax
00000890  6690              xchg eax,eax
00000892  6690              xchg eax,eax
00000894  6690              xchg eax,eax
00000896  6690              xchg eax,eax
00000898  6690              xchg eax,eax
0000089A  6690              xchg eax,eax
0000089C  6690              xchg eax,eax
0000089E  6690              xchg eax,eax
000008A0  6690              xchg eax,eax
000008A2  6690              xchg eax,eax
000008A4  6690              xchg eax,eax
000008A6  6690              xchg eax,eax
000008A8  6690              xchg eax,eax
000008AA  6690              xchg eax,eax
000008AC  6690              xchg eax,eax
000008AE  6690              xchg eax,eax
000008B0  6690              xchg eax,eax
000008B2  6690              xchg eax,eax
000008B4  6690              xchg eax,eax
000008B6  6690              xchg eax,eax
000008B8  6690              xchg eax,eax
000008BA  6690              xchg eax,eax
000008BC  6690              xchg eax,eax
000008BE  6690              xchg eax,eax
000008C0  6690              xchg eax,eax
000008C2  6690              xchg eax,eax
000008C4  6690              xchg eax,eax
000008C6  6690              xchg eax,eax
000008C8  6690              xchg eax,eax
000008CA  6690              xchg eax,eax
000008CC  6690              xchg eax,eax
000008CE  6690              xchg eax,eax
000008D0  6690              xchg eax,eax
000008D2  6690              xchg eax,eax
000008D4  6690              xchg eax,eax
000008D6  6690              xchg eax,eax
000008D8  6690              xchg eax,eax
000008DA  6690              xchg eax,eax
000008DC  6690              xchg eax,eax
000008DE  6690              xchg eax,eax
000008E0  6690              xchg eax,eax
000008E2  6690              xchg eax,eax
000008E4  6690              xchg eax,eax
000008E6  6690              xchg eax,eax
000008E8  6690              xchg eax,eax
000008EA  6690              xchg eax,eax
000008EC  6690              xchg eax,eax
000008EE  6690              xchg eax,eax
000008F0  6690              xchg eax,eax
000008F2  6690              xchg eax,eax
000008F4  6690              xchg eax,eax
000008F6  6690              xchg eax,eax
000008F8  6690              xchg eax,eax
000008FA  6690              xchg eax,eax
000008FC  6690              xchg eax,eax
000008FE  6690              xchg eax,eax
00000900  6690              xchg eax,eax
00000902  6690              xchg eax,eax
00000904  6690              xchg eax,eax
00000906  6690              xchg eax,eax
00000908  6690              xchg eax,eax
0000090A  6690              xchg eax,eax
0000090C  6690              xchg eax,eax
0000090E  6690              xchg eax,eax
00000910  6690              xchg eax,eax
00000912  6690              xchg eax,eax
00000914  6690              xchg eax,eax
00000916  6690              xchg eax,eax
00000918  6690              xchg eax,eax
0000091A  6690              xchg eax,eax
0000091C  6690              xchg eax,eax
0000091E  6690              xchg eax,eax
00000920  6690              xchg eax,eax
00000922  6690              xchg eax,eax
00000924  6690              xchg eax,eax
00000926  6690              xchg eax,eax
00000928  6690              xchg eax,eax
0000092A  6690              xchg eax,eax
0000092C  6690              xchg eax,eax
0000092E  6690              xchg eax,eax
00000930  6690              xchg eax,eax
00000932  6690              xchg eax,eax
00000934  6690              xchg eax,eax
00000936  6690              xchg eax,eax
00000938  6690              xchg eax,eax
0000093A  6690              xchg eax,eax
0000093C  6690              xchg eax,eax
0000093E  6690              xchg eax,eax
00000940  6690              xchg eax,eax
00000942  6690              xchg eax,eax
00000944  6690              xchg eax,eax
00000946  6690              xchg eax,eax
00000948  6690              xchg eax,eax
0000094A  6690              xchg eax,eax
0000094C  6690              xchg eax,eax
0000094E  6690              xchg eax,eax
00000950  6690              xchg eax,eax
00000952  6690              xchg eax,eax
00000954  6690              xchg eax,eax
00000956  6690              xchg eax,eax
00000958  6690              xchg eax,eax
0000095A  6690              xchg eax,eax
0000095C  6690              xchg eax,eax
0000095E  6690              xchg eax,eax
00000960  6690              xchg eax,eax
00000962  6690              xchg eax,eax
00000964  6690              xchg eax,eax
00000966  6690              xchg eax,eax
00000968  6690              xchg eax,eax
0000096A  6690              xchg eax,eax
0000096C  6690              xchg eax,eax
0000096E  6690              xchg eax,eax
00000970  6690              xchg eax,eax
00000972  6690              xchg eax,eax
00000974  6690              xchg eax,eax
00000976  6690              xchg eax,eax
00000978  6690              xchg eax,eax
0000097A  6690              xchg eax,eax
0000097C  6690              xchg eax,eax
0000097E  6690              xchg eax,eax
00000980  6690              xchg eax,eax
00000982  6690              xchg eax,eax
00000984  6690              xchg eax,eax
00000986  6690              xchg eax,eax
00000988  6690              xchg eax,eax
0000098A  6690              xchg eax,eax
0000098C  6690              xchg eax,eax
0000098E  6690              xchg eax,eax
00000990  6690              xchg eax,eax
00000992  6690              xchg eax,eax
00000994  6690              xchg eax,eax
00000996  6690              xchg eax,eax
00000998  6690              xchg eax,eax
0000099A  6690              xchg eax,eax
0000099C  6690              xchg eax,eax
0000099E  6690              xchg eax,eax
000009A0  6690              xchg eax,eax
000009A2  6690              xchg eax,eax
000009A4  6690              xchg eax,eax
000009A6  6690              xchg eax,eax
000009A8  6690              xchg eax,eax
000009AA  6690              xchg eax,eax
000009AC  6690              xchg eax,eax
000009AE  6690              xchg eax,eax
000009B0  6690              xchg eax,eax
000009B2  6690              xchg eax,eax
000009B4  6690              xchg eax,eax
000009B6  6690              xchg eax,eax
000009B8  6690              xchg eax,eax
000009BA  6690              xchg eax,eax
000009BC  6690              xchg eax,eax
000009BE  6690              xchg eax,eax
000009C0  6690              xchg eax,eax
000009C2  6690              xchg eax,eax
000009C4  6690              xchg eax,eax
000009C6  6690              xchg eax,eax
000009C8  6690              xchg eax,eax
000009CA  6690              xchg eax,eax
000009CC  6690              xchg eax,eax
000009CE  6690              xchg eax,eax
000009D0  6690              xchg eax,eax
000009D2  6690              xchg eax,eax
000009D4  6690              xchg eax,eax
000009D6  6690              xchg eax,eax
000009D8  6690              xchg eax,eax
000009DA  6690              xchg eax,eax
000009DC  6690              xchg eax,eax
000009DE  6690              xchg eax,eax
000009E0  6690              xchg eax,eax
000009E2  6690              xchg eax,eax
000009E4  6690              xchg eax,eax
000009E6  6690              xchg eax,eax
000009E8  6690              xchg eax,eax
000009EA  6690              xchg eax,eax
000009EC  6690              xchg eax,eax
000009EE  6690              xchg eax,eax
000009F0  6690              xchg eax,eax
000009F2  6690              xchg eax,eax
000009F4  6690              xchg eax,eax
000009F6  6690              xchg eax,eax
000009F8  6690              xchg eax,eax
000009FA  6690              xchg eax,eax
000009FC  6690              xchg eax,eax
000009FE  6690              xchg eax,eax
00000A00  6690              xchg eax,eax
00000A02  6690              xchg eax,eax
00000A04  6690              xchg eax,eax
00000A06  6690              xchg eax,eax
00000A08  6690              xchg eax,eax
00000A0A  6690              xchg eax,eax
00000A0C  6690              xchg eax,eax
00000A0E  6690              xchg eax,eax
00000A10  6690              xchg eax,eax
00000A12  6690              xchg eax,eax
00000A14  6690              xchg eax,eax
00000A16  6690              xchg eax,eax
00000A18  6690              xchg eax,eax
00000A1A  6690              xchg eax,eax
00000A1C  6690              xchg eax,eax
00000A1E  6690              xchg eax,eax
00000A20  6690              xchg eax,eax
00000A22  6690              xchg eax,eax
00000A24  6690              xchg eax,eax
00000A26  6690              xchg eax,eax
00000A28  6690              xchg eax,eax
00000A2A  6690              xchg eax,eax
00000A2C  6690              xchg eax,eax
00000A2E  6690              xchg eax,eax
00000A30  6690              xchg eax,eax
00000A32  6690              xchg eax,eax
00000A34  6690              xchg eax,eax
00000A36  6690              xchg eax,eax
00000A38  6690              xchg eax,eax
00000A3A  6690              xchg eax,eax
00000A3C  6690              xchg eax,eax
00000A3E  6690              xchg eax,eax
00000A40  6690              xchg eax,eax
00000A42  6690              xchg eax,eax
00000A44  6690              xchg eax,eax
00000A46  6690              xchg eax,eax
00000A48  6690              xchg eax,eax
00000A4A  6690              xchg eax,eax
00000A4C  6690              xchg eax,eax
00000A4E  6690              xchg eax,eax
00000A50  6690              xchg eax,eax
00000A52  6690              xchg eax,eax
00000A54  6690              xchg eax,eax
00000A56  6690              xchg eax,eax
00000A58  6690              xchg eax,eax
00000A5A  6690              xchg eax,eax
00000A5C  6690              xchg eax,eax
00000A5E  6690              xchg eax,eax
00000A60  6690              xchg eax,eax
00000A62  6690              xchg eax,eax
00000A64  6690              xchg eax,eax
00000A66  6690              xchg eax,eax
00000A68  6690              xchg eax,eax
00000A6A  6690              xchg eax,eax
00000A6C  6690              xchg eax,eax
00000A6E  6690              xchg eax,eax
00000A70  6690              xchg eax,eax
00000A72  6690              xchg eax,eax
00000A74  6690              xchg eax,eax
00000A76  6690              xchg eax,eax
00000A78  6690              xchg eax,eax
00000A7A  6690              xchg eax,eax
00000A7C  6690              xchg eax,eax
00000A7E  6690              xchg eax,eax
00000A80  6690              xchg eax,eax
00000A82  6690              xchg eax,eax
00000A84  6690              xchg eax,eax
00000A86  6690              xchg eax,eax
00000A88  6690              xchg eax,eax
00000A8A  6690              xchg eax,eax
00000A8C  6690              xchg eax,eax
00000A8E  6690              xchg eax,eax
00000A90  6690              xchg eax,eax
00000A92  6690              xchg eax,eax
00000A94  6690              xchg eax,eax
00000A96  6690              xchg eax,eax
00000A98  6690              xchg eax,eax
00000A9A  6690              xchg eax,eax
00000A9C  6690              xchg eax,eax
00000A9E  6690              xchg eax,eax
00000AA0  6690              xchg eax,eax
00000AA2  6690              xchg eax,eax
00000AA4  6690              xchg eax,eax
00000AA6  6690              xchg eax,eax
00000AA8  6690              xchg eax,eax
00000AAA  6690              xchg eax,eax
00000AAC  6690              xchg eax,eax
00000AAE  6690              xchg eax,eax
00000AB0  6690              xchg eax,eax
00000AB2  6690              xchg eax,eax
00000AB4  6690              xchg eax,eax
00000AB6  6690              xchg eax,eax
00000AB8  6690              xchg eax,eax
00000ABA  6690              xchg eax,eax
00000ABC  6690              xchg eax,eax
00000ABE  6690              xchg eax,eax
00000AC0  6690              xchg eax,eax
00000AC2  6690              xchg eax,eax
00000AC4  6690              xchg eax,eax
00000AC6  6690              xchg eax,eax
00000AC8  6690              xchg eax,eax
00000ACA  6690              xchg eax,eax
00000ACC  6690              xchg eax,eax
00000ACE  6690              xchg eax,eax
00000AD0  6690              xchg eax,eax
00000AD2  6690              xchg eax,eax
00000AD4  6690              xchg eax,eax
00000AD6  6690              xchg eax,eax
00000AD8  6690              xchg eax,eax
00000ADA  6690              xchg eax,eax
00000ADC  6690              xchg eax,eax
00000ADE  6690              xchg eax,eax
00000AE0  6690              xchg eax,eax
00000AE2  6690              xchg eax,eax
00000AE4  6690              xchg eax,eax
00000AE6  6690              xchg eax,eax
00000AE8  6690              xchg eax,eax
00000AEA  6690              xchg eax,eax
00000AEC  6690              xchg eax,eax
00000AEE  6690              xchg eax,eax
00000AF0  6690              xchg eax,eax
00000AF2  6690              xchg eax,eax
00000AF4  6690              xchg eax,eax
00000AF6  6690              xchg eax,eax
00000AF8  6690              xchg eax,eax
00000AFA  6690              xchg eax,eax
00000AFC  6690              xchg eax,eax
00000AFE  6690              xchg eax,eax
00000B00  6690              xchg eax,eax
00000B02  6690              xchg eax,eax
00000B04  6690              xchg eax,eax
00000B06  6690              xchg eax,eax
00000B08  6690              xchg eax,eax
00000B0A  6690              xchg eax,eax
00000B0C  6690              xchg eax,eax
00000B0E  6690              xchg eax,eax
00000B10  6690              xchg eax,eax
00000B12  6690              xchg eax,eax
00000B14  6690              xchg eax,eax
00000B16  6690              xchg eax,eax
00000B18  6690              xchg eax,eax
00000B1A  6690              xchg eax,eax
00000B1C  6690              xchg eax,eax
00000B1E  6690              xchg eax,eax
00000B20  6690              xchg eax,eax
00000B22  6690              xchg eax,eax
00000B24  6690              xchg eax,eax
00000B26  6690              xchg eax,eax
00000B28  6690              xchg eax,eax
00000B2A  6690              xchg eax,eax
00000B2C  6690              xchg eax,eax
00000B2E  6690              xchg eax,eax
00000B30  6690              xchg eax,eax
00000B32  6690              xchg eax,eax
00000B34  6690              xchg eax,eax
00000B36  6690              xchg eax,eax
00000B38  6690              xchg eax,eax
00000B3A  6690              xchg eax,eax
00000B3C  6690              xchg eax,eax
00000B3E  6690              xchg eax,eax
00000B40  6690              xchg eax,eax
00000B42  6690              xchg eax,eax
00000B44  6690              xchg eax,eax
00000B46  6690              xchg eax,eax
00000B48  6690              xchg eax,eax
00000B4A  6690              xchg eax,eax
00000B4C  6690              xchg eax,eax
00000B4E  6690              xchg eax,eax
00000B50  6690              xchg eax,eax
00000B52  6690              xchg eax,eax
00000B54  6690              xchg eax,eax
00000B56  6690              xchg eax,eax
00000B58  6690              xchg eax,eax
00000B5A  6690              xchg eax,eax
00000B5C  6690              xchg eax,eax
00000B5E  6690              xchg eax,eax
00000B60  6690              xchg eax,eax
00000B62  6690              xchg eax,eax
00000B64  6690              xchg eax,eax
00000B66  6690              xchg eax,eax
00000B68  6690              xchg eax,eax
00000B6A  6690              xchg eax,eax
00000B6C  6690              xchg eax,eax
00000B6E  6690              xchg eax,eax
00000B70  6690              xchg eax,eax
00000B72  6690              xchg eax,eax
00000B74  6690              xchg eax,eax
00000B76  6690              xchg eax,eax
00000B78  6690              xchg eax,eax
00000B7A  6690              xchg eax,eax
00000B7C  6690              xchg eax,eax
00000B7E  6690              xchg eax,eax
00000B80  6690              xchg eax,eax
00000B82  6690              xchg eax,eax
00000B84  6690              xchg eax,eax
00000B86  6690              xchg eax,eax
00000B88  6690              xchg eax,eax
00000B8A  6690              xchg eax,eax
00000B8C  6690              xchg eax,eax
00000B8E  6690              xchg eax,eax
00000B90  6690              xchg eax,eax
00000B92  6690              xchg eax,eax
00000B94  6690              xchg eax,eax
00000B96  6690              xchg eax,eax
00000B98  6690              xchg eax,eax
00000B9A  6690              xchg eax,eax
00000B9C  6690              xchg eax,eax
00000B9E  6690              xchg eax,eax
00000BA0  6690              xchg eax,eax
00000BA2  6690              xchg eax,eax
00000BA4  6690              xchg eax,eax
00000BA6  6690              xchg eax,eax
00000BA8  6690              xchg eax,eax
00000BAA  6690              xchg eax,eax
00000BAC  6690              xchg eax,eax
00000BAE  6690              xchg eax,eax
00000BB0  6690              xchg eax,eax
00000BB2  6690              xchg eax,eax
00000BB4  6690              xchg eax,eax
00000BB6  6690              xchg eax,eax
00000BB8  6690              xchg eax,eax
00000BBA  6690              xchg eax,eax
00000BBC  6690              xchg eax,eax
00000BBE  6690              xchg eax,eax
00000BC0  6690              xchg eax,eax
00000BC2  6690              xchg eax,eax
00000BC4  6690              xchg eax,eax
00000BC6  6690              xchg eax,eax
00000BC8  6690              xchg eax,eax
00000BCA  6690              xchg eax,eax
00000BCC  6690              xchg eax,eax
00000BCE  6690              xchg eax,eax
00000BD0  6690              xchg eax,eax
00000BD2  6690              xchg eax,eax
00000BD4  6690              xchg eax,eax
00000BD6  6690              xchg eax,eax
00000BD8  6690              xchg eax,eax
00000BDA  6690              xchg eax,eax
00000BDC  6690              xchg eax,eax
00000BDE  6690              xchg eax,eax
00000BE0  6690              xchg eax,eax
00000BE2  6690              xchg eax,eax
00000BE4  6690              xchg eax,eax
00000BE6  6690              xchg eax,eax
00000BE8  6690              xchg eax,eax
00000BEA  6690              xchg eax,eax
00000BEC  6690              xchg eax,eax
00000BEE  6690              xchg eax,eax
00000BF0  6690              xchg eax,eax
00000BF2  6690              xchg eax,eax
00000BF4  6690              xchg eax,eax
00000BF6  6690              xchg eax,eax
00000BF8  6690              xchg eax,eax
00000BFA  6690              xchg eax,eax
00000BFC  6690              xchg eax,eax
00000BFE  6690              xchg eax,eax
00000C00  6690              xchg eax,eax
00000C02  6690              xchg eax,eax
00000C04  6690              xchg eax,eax
00000C06  6690              xchg eax,eax
00000C08  6690              xchg eax,eax
00000C0A  6690              xchg eax,eax
00000C0C  6690              xchg eax,eax
00000C0E  6690              xchg eax,eax
00000C10  6690              xchg eax,eax
00000C12  6690              xchg eax,eax
00000C14  6690              xchg eax,eax
00000C16  6690              xchg eax,eax
00000C18  6690              xchg eax,eax
00000C1A  6690              xchg eax,eax
00000C1C  6690              xchg eax,eax
00000C1E  6690              xchg eax,eax
00000C20  6690              xchg eax,eax
00000C22  6690              xchg eax,eax
00000C24  6690              xchg eax,eax
00000C26  6690              xchg eax,eax
00000C28  6690              xchg eax,eax
00000C2A  6690              xchg eax,eax
00000C2C  6690              xchg eax,eax
00000C2E  6690              xchg eax,eax
00000C30  6690              xchg eax,eax
00000C32  6690              xchg eax,eax
00000C34  6690              xchg eax,eax
00000C36  6690              xchg eax,eax
00000C38  6690              xchg eax,eax
00000C3A  6690              xchg eax,eax
00000C3C  6690              xchg eax,eax
00000C3E  6690              xchg eax,eax
00000C40  6690              xchg eax,eax
00000C42  6690              xchg eax,eax
00000C44  6690              xchg eax,eax
00000C46  6690              xchg eax,eax
00000C48  6690              xchg eax,eax
00000C4A  6690              xchg eax,eax
00000C4C  6690              xchg eax,eax
00000C4E  6690              xchg eax,eax
00000C50  6690              xchg eax,eax
00000C52  6690              xchg eax,eax
00000C54  6690              xchg eax,eax
00000C56  6690              xchg eax,eax
00000C58  6690              xchg eax,eax
00000C5A  6690              xchg eax,eax
00000C5C  6690              xchg eax,eax
00000C5E  6690              xchg eax,eax
00000C60  6690              xchg eax,eax
00000C62  6690              xchg eax,eax
00000C64  6690              xchg eax,eax
00000C66  6690              xchg eax,eax
00000C68  6690              xchg eax,eax
00000C6A  6690              xchg eax,eax
00000C6C  6690              xchg eax,eax
00000C6E  6690              xchg eax,eax
00000C70  6690              xchg eax,eax
00000C72  6690              xchg eax,eax
00000C74  6690              xchg eax,eax
00000C76  6690              xchg eax,eax
00000C78  6690              xchg eax,eax
00000C7A  6690              xchg eax,eax
00000C7C  6690              xchg eax,eax
00000C7E  6690              xchg eax,eax
00000C80  6690              xchg eax,eax
00000C82  6690              xchg eax,eax
00000C84  6690              xchg eax,eax
00000C86  6690              xchg eax,eax
00000C88  6690              xchg eax,eax
00000C8A  6690              xchg eax,eax
00000C8C  6690              xchg eax,eax
00000C8E  6690              xchg eax,eax
00000C90  6690              xchg eax,eax
00000C92  6690              xchg eax,eax
00000C94  6690              xchg eax,eax
00000C96  6690              xchg eax,eax
00000C98  6690              xchg eax,eax
00000C9A  6690              xchg eax,eax
00000C9C  6690              xchg eax,eax
00000C9E  6690              xchg eax,eax
00000CA0  6690              xchg eax,eax
00000CA2  6690              xchg eax,eax
00000CA4  6690              xchg eax,eax
00000CA6  6690              xchg eax,eax
00000CA8  6690              xchg eax,eax
00000CAA  6690              xchg eax,eax
00000CAC  6690              xchg eax,eax
00000CAE  6690              xchg eax,eax
00000CB0  6690              xchg eax,eax
00000CB2  6690              xchg eax,eax
00000CB4  6690              xchg eax,eax
00000CB6  6690              xchg eax,eax
00000CB8  6690              xchg eax,eax
00000CBA  6690              xchg eax,eax
00000CBC  6690              xchg eax,eax
00000CBE  6690              xchg eax,eax
00000CC0  6690              xchg eax,eax
00000CC2  6690              xchg eax,eax
00000CC4  6690              xchg eax,eax
00000CC6  6690              xchg eax,eax
00000CC8  6690              xchg eax,eax
00000CCA  6690              xchg eax,eax
00000CCC  6690              xchg eax,eax
00000CCE  6690              xchg eax,eax
00000CD0  6690              xchg eax,eax
00000CD2  6690              xchg eax,eax
00000CD4  6690              xchg eax,eax
00000CD6  6690              xchg eax,eax
00000CD8  6690              xchg eax,eax
00000CDA  6690              xchg eax,eax
00000CDC  6690              xchg eax,eax
00000CDE  6690              xchg eax,eax
00000CE0  6690              xchg eax,eax
00000CE2  6690              xchg eax,eax
00000CE4  6690              xchg eax,eax
00000CE6  6690              xchg eax,eax
00000CE8  6690              xchg eax,eax
00000CEA  6690              xchg eax,eax
00000CEC  6690              xchg eax,eax
00000CEE  6690              xchg eax,eax
00000CF0  6690              xchg eax,eax
00000CF2  6690              xchg eax,eax
00000CF4  6690              xchg eax,eax
00000CF6  6690              xchg eax,eax
00000CF8  6690              xchg eax,eax
00000CFA  6690              xchg eax,eax
00000CFC  6690              xchg eax,eax
00000CFE  6690              xchg eax,eax
00000D00  6690              xchg eax,eax
00000D02  6690              xchg eax,eax
00000D04  6690              xchg eax,eax
00000D06  6690              xchg eax,eax
00000D08  6690              xchg eax,eax
00000D0A  6690              xchg eax,eax
00000D0C  6690              xchg eax,eax
00000D0E  6690              xchg eax,eax
00000D10  6690              xchg eax,eax
00000D12  6690              xchg eax,eax
00000D14  6690              xchg eax,eax
00000D16  6690              xchg eax,eax
00000D18  6690              xchg eax,eax
00000D1A  6690              xchg eax,eax
00000D1C  6690              xchg eax,eax
00000D1E  6690              xchg eax,eax
00000D20  6690              xchg eax,eax
00000D22  6690              xchg eax,eax
00000D24  6690              xchg eax,eax
00000D26  6690              xchg eax,eax
00000D28  6690              xchg eax,eax
00000D2A  6690              xchg eax,eax
00000D2C  6690              xchg eax,eax
00000D2E  6690              xchg eax,eax
00000D30  6690              xchg eax,eax
00000D32  6690              xchg eax,eax
00000D34  6690              xchg eax,eax
00000D36  6690              xchg eax,eax
00000D38  6690              xchg eax,eax
00000D3A  6690              xchg eax,eax
00000D3C  6690              xchg eax,eax
00000D3E  6690              xchg eax,eax
00000D40  6690              xchg eax,eax
00000D42  6690              xchg eax,eax
00000D44  6690              xchg eax,eax
00000D46  6690              xchg eax,eax
00000D48  6690              xchg eax,eax
00000D4A  6690              xchg eax,eax
00000D4C  6690              xchg eax,eax
00000D4E  6690              xchg eax,eax
00000D50  6690              xchg eax,eax
00000D52  6690              xchg eax,eax
00000D54  6690              xchg eax,eax
00000D56  6690              xchg eax,eax
00000D58  6690              xchg eax,eax
00000D5A  6690              xchg eax,eax
00000D5C  6690              xchg eax,eax
00000D5E  6690              xchg eax,eax
00000D60  6690              xchg eax,eax
00000D62  6690              xchg eax,eax
00000D64  6690              xchg eax,eax
00000D66  6690              xchg eax,eax
00000D68  6690              xchg eax,eax
00000D6A  6690              xchg eax,eax
00000D6C  6690              xchg eax,eax
00000D6E  6690              xchg eax,eax
00000D70  6690              xchg eax,eax
00000D72  6690              xchg eax,eax
00000D74  6690              xchg eax,eax
00000D76  6690              xchg eax,eax
00000D78  6690              xchg eax,eax
00000D7A  6690              xchg eax,eax
00000D7C  6690              xchg eax,eax
00000D7E  6690              xchg eax,eax
00000D80  6690              xchg eax,eax
00000D82  6690              xchg eax,eax
00000D84  6690              xchg eax,eax
00000D86  6690              xchg eax,eax
00000D88  6690              xchg eax,eax
00000D8A  6690              xchg eax,eax
00000D8C  6690              xchg eax,eax
00000D8E  6690              xchg eax,eax
00000D90  6690              xchg eax,eax
00000D92  6690              xchg eax,eax
00000D94  6690              xchg eax,eax
00000D96  6690              xchg eax,eax
00000D98  6690              xchg eax,eax
00000D9A  6690              xchg eax,eax
00000D9C  6690              xchg eax,eax
00000D9E  6690              xchg eax,eax
00000DA0  6690              xchg eax,eax
00000DA2  6690              xchg eax,eax
00000DA4  6690              xchg eax,eax
00000DA6  6690              xchg eax,eax
00000DA8  6690              xchg eax,eax
00000DAA  6690              xchg eax,eax
00000DAC  6690              xchg eax,eax
00000DAE  6690              xchg eax,eax
00000DB0  6690              xchg eax,eax
00000DB2  6690              xchg eax,eax
00000DB4  6690              xchg eax,eax
00000DB6  6690              xchg eax,eax
00000DB8  6690              xchg eax,eax
00000DBA  6690              xchg eax,eax
00000DBC  6690              xchg eax,eax
00000DBE  6690              xchg eax,eax
00000DC0  6690              xchg eax,eax
00000DC2  6690              xchg eax,eax
00000DC4  6690              xchg eax,eax
00000DC6  6690              xchg eax,eax
00000DC8  6690              xchg eax,eax
00000DCA  6690              xchg eax,eax
00000DCC  6690              xchg eax,eax
00000DCE  6690              xchg eax,eax
00000DD0  6690              xchg eax,eax
00000DD2  6690              xchg eax,eax
00000DD4  6690              xchg eax,eax
00000DD6  6690              xchg eax,eax
00000DD8  6690              xchg eax,eax
00000DDA  6690              xchg eax,eax
00000DDC  6690              xchg eax,eax
00000DDE  6690              xchg eax,eax
00000DE0  6690              xchg eax,eax
00000DE2  6690              xchg eax,eax
00000DE4  6690              xchg eax,eax
00000DE6  6690              xchg eax,eax
00000DE8  6690              xchg eax,eax
00000DEA  6690              xchg eax,eax
00000DEC  6690              xchg eax,eax
00000DEE  6690              xchg eax,eax
00000DF0  6690              xchg eax,eax
00000DF2  6690              xchg eax,eax
00000DF4  6690              xchg eax,eax
00000DF6  6690              xchg eax,eax
00000DF8  6690              xchg eax,eax
00000DFA  6690              xchg eax,eax
00000DFC  6690              xchg eax,eax
00000DFE  6690              xchg eax,eax
00000E00  6690              xchg eax,eax
00000E02  6690              xchg eax,eax
00000E04  6690              xchg eax,eax
00000E06  6690              xchg eax,eax
00000E08  6690              xchg eax,eax
00000E0A  6690              xchg eax,eax
00000E0C  6690              xchg eax,eax
00000E0E  6690              xchg eax,eax
00000E10  6690              xchg eax,eax
00000E12  6690              xchg eax,eax
00000E14  6690              xchg eax,eax
00000E16  6690              xchg eax,eax
00000E18  6690              xchg eax,eax
00000E1A  6690              xchg eax,eax
00000E1C  6690              xchg eax,eax
00000E1E  6690              xchg eax,eax
00000E20  6690              xchg eax,eax
00000E22  6690              xchg eax,eax
00000E24  6690              xchg eax,eax
00000E26  6690              xchg eax,eax
00000E28  6690              xchg eax,eax
00000E2A  6690              xchg eax,eax
00000E2C  6690              xchg eax,eax
00000E2E  6690              xchg eax,eax
00000E30  6690              xchg eax,eax
00000E32  6690              xchg eax,eax
00000E34  6690              xchg eax,eax
00000E36  6690              xchg eax,eax
00000E38  6690              xchg eax,eax
00000E3A  6690              xchg eax,eax
00000E3C  6690              xchg eax,eax
00000E3E  6690              xchg eax,eax
00000E40  6690              xchg eax,eax
00000E42  6690              xchg eax,eax
00000E44  6690              xchg eax,eax
00000E46  6690              xchg eax,eax
00000E48  6690              xchg eax,eax
00000E4A  6690              xchg eax,eax
00000E4C  6690              xchg eax,eax
00000E4E  6690              xchg eax,eax
00000E50  6690              xchg eax,eax
00000E52  6690              xchg eax,eax
00000E54  6690              xchg eax,eax
00000E56  6690              xchg eax,eax
00000E58  6690              xchg eax,eax
00000E5A  6690              xchg eax,eax
00000E5C  6690              xchg eax,eax
00000E5E  6690              xchg eax,eax
00000E60  6690              xchg eax,eax
00000E62  6690              xchg eax,eax
00000E64  6690              xchg eax,eax
00000E66  6690              xchg eax,eax
00000E68  6690              xchg eax,eax
00000E6A  6690              xchg eax,eax
00000E6C  6690              xchg eax,eax
00000E6E  6690              xchg eax,eax
00000E70  6690              xchg eax,eax
00000E72  6690              xchg eax,eax
00000E74  6690              xchg eax,eax
00000E76  6690              xchg eax,eax
00000E78  6690              xchg eax,eax
00000E7A  6690              xchg eax,eax
00000E7C  6690              xchg eax,eax
00000E7E  6690              xchg eax,eax
00000E80  6690              xchg eax,eax
00000E82  6690              xchg eax,eax
00000E84  6690              xchg eax,eax
00000E86  6690              xchg eax,eax
00000E88  6690              xchg eax,eax
00000E8A  6690              xchg eax,eax
00000E8C  6690              xchg eax,eax
00000E8E  6690              xchg eax,eax
00000E90  6690              xchg eax,eax
00000E92  6690              xchg eax,eax
00000E94  6690              xchg eax,eax
00000E96  6690              xchg eax,eax
00000E98  6690              xchg eax,eax
00000E9A  6690              xchg eax,eax
00000E9C  6690              xchg eax,eax
00000E9E  6690              xchg eax,eax
00000EA0  6690              xchg eax,eax
00000EA2  6690              xchg eax,eax
00000EA4  6690              xchg eax,eax
00000EA6  6690              xchg eax,eax
00000EA8  6690              xchg eax,eax
00000EAA  6690              xchg eax,eax
00000EAC  6690              xchg eax,eax
00000EAE  6690              xchg eax,eax
00000EB0  6690              xchg eax,eax
00000EB2  6690              xchg eax,eax
00000EB4  6690              xchg eax,eax
00000EB6  6690              xchg eax,eax
00000EB8  6690              xchg eax,eax
00000EBA  6690              xchg eax,eax
00000EBC  6690              xchg eax,eax
00000EBE  6690              xchg eax,eax
00000EC0  6690              xchg eax,eax
00000EC2  6690              xchg eax,eax
00000EC4  6690              xchg eax,eax
00000EC6  6690              xchg eax,eax
00000EC8  6690              xchg eax,eax
00000ECA  6690              xchg eax,eax
00000ECC  6690              xchg eax,eax
00000ECE  6690              xchg eax,eax
00000ED0  6690              xchg eax,eax
00000ED2  6690              xchg eax,eax
00000ED4  6690              xchg eax,eax
00000ED6  6690              xchg eax,eax
00000ED8  6690              xchg eax,eax
00000EDA  6690              xchg eax,eax
00000EDC  6690              xchg eax,eax
00000EDE  6690              xchg eax,eax
00000EE0  6690              xchg eax,eax
00000EE2  6690              xchg eax,eax
00000EE4  6690              xchg eax,eax
00000EE6  6690              xchg eax,eax
00000EE8  6690              xchg eax,eax
00000EEA  6690              xchg eax,eax
00000EEC  6690              xchg eax,eax
00000EEE  6690              xchg eax,eax
00000EF0  6690              xchg eax,eax
00000EF2  6690              xchg eax,eax
00000EF4  6690              xchg eax,eax
00000EF6  6690              xchg eax,eax
00000EF8  6690              xchg eax,eax
00000EFA  6690              xchg eax,eax
00000EFC  6690              xchg eax,eax
00000EFE  6690              xchg eax,eax
00000F00  6690              xchg eax,eax
00000F02  6690              xchg eax,eax
00000F04  6690              xchg eax,eax
00000F06  6690              xchg eax,eax
00000F08  6690              xchg eax,eax
00000F0A  6690              xchg eax,eax
00000F0C  6690              xchg eax,eax
00000F0E  6690              xchg eax,eax
00000F10  6690              xchg eax,eax
00000F12  6690              xchg eax,eax
00000F14  6690              xchg eax,eax
00000F16  6690              xchg eax,eax
00000F18  6690              xchg eax,eax
00000F1A  6690              xchg eax,eax
00000F1C  6690              xchg eax,eax
00000F1E  6690              xchg eax,eax
00000F20  6690              xchg eax,eax
00000F22  6690              xchg eax,eax
00000F24  6690              xchg eax,eax
00000F26  6690              xchg eax,eax
00000F28  6690              xchg eax,eax
00000F2A  6690              xchg eax,eax
00000F2C  6690              xchg eax,eax
00000F2E  6690              xchg eax,eax
00000F30  6690              xchg eax,eax
00000F32  6690              xchg eax,eax
00000F34  6690              xchg eax,eax
00000F36  6690              xchg eax,eax
00000F38  6690              xchg eax,eax
00000F3A  6690              xchg eax,eax
00000F3C  6690              xchg eax,eax
00000F3E  6690              xchg eax,eax
00000F40  6690              xchg eax,eax
00000F42  6690              xchg eax,eax
00000F44  6690              xchg eax,eax
00000F46  6690              xchg eax,eax
00000F48  6690              xchg eax,eax
00000F4A  6690              xchg eax,eax
00000F4C  6690              xchg eax,eax
00000F4E  6690              xchg eax,eax
00000F50  6690              xchg eax,eax
00000F52  6690              xchg eax,eax
00000F54  6690              xchg eax,eax
00000F56  6690              xchg eax,eax
00000F58  6690              xchg eax,eax
00000F5A  6690              xchg eax,eax
00000F5C  6690              xchg eax,eax
00000F5E  6690              xchg eax,eax
00000F60  6690              xchg eax,eax
00000F62  6690              xchg eax,eax
00000F64  6690              xchg eax,eax
00000F66  6690              xchg eax,eax
00000F68  6690              xchg eax,eax
00000F6A  6690              xchg eax,eax
00000F6C  6690              xchg eax,eax
00000F6E  6690              xchg eax,eax
00000F70  6690              xchg eax,eax
00000F72  6690              xchg eax,eax
00000F74  6690              xchg eax,eax
00000F76  6690              xchg eax,eax
00000F78  6690              xchg eax,eax
00000F7A  6690              xchg eax,eax
00000F7C  6690              xchg eax,eax
00000F7E  6690              xchg eax,eax
00000F80  6690              xchg eax,eax
00000F82  6690              xchg eax,eax
00000F84  6690              xchg eax,eax
00000F86  6690              xchg eax,eax
00000F88  6690              xchg eax,eax
00000F8A  6690              xchg eax,eax
00000F8C  6690              xchg eax,eax
00000F8E  6690              xchg eax,eax
00000F90  6690              xchg eax,eax
00000F92  6690              xchg eax,eax
00000F94  6690              xchg eax,eax
00000F96  6690              xchg eax,eax
00000F98  6690              xchg eax,eax
00000F9A  6690              xchg eax,eax
00000F9C  6690              xchg eax,eax
00000F9E  6690              xchg eax,eax
00000FA0  6690              xchg eax,eax
00000FA2  6690              xchg eax,eax
00000FA4  6690              xchg eax,eax
00000FA6  6690              xchg eax,eax
00000FA8  6690              xchg eax,eax
00000FAA  6690              xchg eax,eax
00000FAC  6690              xchg eax,eax
00000FAE  6690              xchg eax,eax
00000FB0  6690              xchg eax,eax
00000FB2  6690              xchg eax,eax
00000FB4  6690              xchg eax,eax
00000FB6  6690              xchg eax,eax
00000FB8  6690              xchg eax,eax
00000FBA  6690              xchg eax,eax
00000FBC  6690              xchg eax,eax
00000FBE  6690              xchg eax,eax
00000FC0  6690              xchg eax,eax
00000FC2  6690              xchg eax,eax
00000FC4  6690              xchg eax,eax
00000FC6  6690              xchg eax,eax
00000FC8  6690              xchg eax,eax
00000FCA  6690              xchg eax,eax
00000FCC  6690              xchg eax,eax
00000FCE  6690              xchg eax,eax
00000FD0  6690              xchg eax,eax
00000FD2  6690              xchg eax,eax
00000FD4  6690              xchg eax,eax
00000FD6  6690              xchg eax,eax
00000FD8  6690              xchg eax,eax
00000FDA  6690              xchg eax,eax
00000FDC  6690              xchg eax,eax
00000FDE  6690              xchg eax,eax
00000FE0  6690              xchg eax,eax
00000FE2  6690              xchg eax,eax
00000FE4  6690              xchg eax,eax
00000FE6  6690              xchg eax,eax
00000FE8  6690              xchg eax,eax
00000FEA  6690              xchg eax,eax
00000FEC  6690              xchg eax,eax
00000FEE  6690              xchg eax,eax
00000FF0  6690              xchg eax,eax
00000FF2  6690              xchg eax,eax
00000FF4  6690              xchg eax,eax
00000FF6  6690              xchg eax,eax
00000FF8  6690              xchg eax,eax
00000FFA  6690              xchg eax,eax
00000FFC  6690              xchg eax,eax
00000FFE  6690              xchg eax,eax
00001000  1400              adc al,0x0
00001002  0000              add [bx+si],al
00001004  0000              add [bx+si],al
00001006  0000              add [bx+si],al
00001008  017A52            add [bp+si+0x52],di
0000100B  0001              add [bx+di],al
0000100D  7C08              jl 0x1017
0000100F  011B              add [bp+di],bx
00001011  0C04              or al,0x4
00001013  0488              add al,0x88
00001015  0100              add [bx+si],ax
00001017  0018              add [bx+si],bl
00001019  0000              add [bx+si],al
0000101B  001C              add [si],bl
0000101D  0000              add [bx+si],al
0000101F  00E0              add al,ah
00001021  EF                out dx,ax
00001022  FF                db 0xff
00001023  FFA60000          jmp word [bp+0x0]
00001027  0000              add [bx+si],al
00001029  41                inc cx
0000102A  0E                push cs
0000102B  08850242          or [di+0x4202],al
0000102F  0D0500            or ax,0x5
00001032  0000              add [bx+si],al
00001034  1400              adc al,0x0
00001036  0000              add [bx+si],al
00001038  0000              add [bx+si],al
0000103A  0000              add [bx+si],al
0000103C  017A52            add [bp+si+0x52],di
0000103F  0001              add [bx+di],al
00001041  7C08              jl 0x104b
00001043  011B              add [bp+di],bx
00001045  0C04              or al,0x4
00001047  0488              add al,0x88
00001049  0100              add [bx+si],ax
0000104B  0020              add [bx+si],ah
0000104D  0000              add [bx+si],al
0000104F  001C              add [si],bl
00001051  0000              add [bx+si],al
00001053  0052F0            add [bp+si-0x10],dl
00001056  FF                db 0xff
00001057  FF30              push word [bx+si]
00001059  0000              add [bx+si],al
0000105B  0000              add [bx+si],al
0000105D  41                inc cx
0000105E  0E                push cs
0000105F  08850242          or [di+0x4202],al
00001063  0D0541            or ax,0x4105
00001066  83036A            add word [bp+di],byte +0x6a
00001069  C3                ret
0000106A  41                inc cx
0000106B  C50C              lds cx,[si]
0000106D  0404              add al,0x4
0000106F  0020              add [bx+si],ah
00001071  0000              add [bx+si],al
00001073  004000            add [bx+si+0x0],al
00001076  0000              add [bx+si],al
00001078  5E                pop si
00001079  F0                lock
0000107A  FF                db 0xff
0000107B  FF28              jmp word far [bx+si]
0000107D  0000              add [bx+si],al
0000107F  0000              add [bx+si],al
00001081  41                inc cx
00001082  0E                push cs
00001083  08850242          or [di+0x4202],al
00001087  0D0541            or ax,0x4105
0000108A  8603              xchg al,[bp+di]
0000108C  62                db 0x62
0000108D  C641C50C          mov byte [bx+di-0x3b],0xc
00001091  0404              add al,0x4
00001093  001C              add [si],bl
00001095  0000              add [bx+si],al
00001097  006400            add [si+0x0],ah
0000109A  0000              add [bx+si],al
0000109C  62                db 0x62
0000109D  F0                lock
0000109E  FF                db 0xff
0000109F  FF1D              call word far [di]
000010A1  0000              add [bx+si],al
000010A3  0000              add [bx+si],al
000010A5  41                inc cx
000010A6  0E                push cs
000010A7  08850242          or [di+0x4202],al
000010AB  0D0559            or ax,0x5905
000010AE  C50C              lds cx,[si]
000010B0  0404              add al,0x4
000010B2  0000              add [bx+si],al
000010B4  1C00              sbb al,0x0
000010B6  0000              add [bx+si],al
000010B8  8400              test [bx+si],al
000010BA  0000              add [bx+si],al
000010BC  5F                pop di
000010BD  F0                lock
000010BE  FF                db 0xff
000010BF  FF1C              call word far [si]
000010C1  0000              add [bx+si],al
000010C3  0000              add [bx+si],al
000010C5  41                inc cx
000010C6  0E                push cs
000010C7  08850242          or [di+0x4202],al
000010CB  0D0558            or ax,0x5805
000010CE  C50C              lds cx,[si]
000010D0  0404              add al,0x4
000010D2  0000              add [bx+si],al
000010D4  1400              adc al,0x0
000010D6  0000              add [bx+si],al
000010D8  0000              add [bx+si],al
000010DA  0000              add [bx+si],al
000010DC  017A52            add [bp+si+0x52],di
000010DF  0001              add [bx+di],al
000010E1  7C08              jl 0x10eb
000010E3  011B              add [bp+di],bx
000010E5  0C04              or al,0x4
000010E7  0488              add al,0x88
000010E9  0100              add [bx+si],ax
000010EB  001C              add [si],bl
000010ED  0000              add [bx+si],al
000010EF  001C              add [si],bl
000010F1  0000              add [bx+si],al
000010F3  0043F0            add [bp+di-0x10],al
000010F6  FF                db 0xff
000010F7  FF1F              call word far [bx]
000010F9  0000              add [bx+si],al
000010FB  0000              add [bx+si],al
000010FD  41                inc cx
000010FE  0E                push cs
000010FF  08850242          or [di+0x4202],al
00001103  0D055B            or ax,0x5b05
00001106  C50C              lds cx,[si]
00001108  0404              add al,0x4
0000110A  0000              add [bx+si],al
0000110C  1C00              sbb al,0x0
0000110E  0000              add [bx+si],al
00001110  3C00              cmp al,0x0
00001112  0000              add [bx+si],al
00001114  42                inc dx
00001115  F0                lock
00001116  FF                db 0xff
00001117  FF6800            jmp word far [bx+si+0x0]
0000111A  0000              add [bx+si],al
0000111C  00410E            add [bx+di+0xe],al
0000111F  08850242          or [di+0x4202],al
00001123  0D0502            or ax,0x205
00001126  64C50C            lds cx,[fs:si]
00001129  0404              add al,0x4
0000112B  0014              add [si],dl
0000112D  0000              add [bx+si],al
0000112F  0000              add [bx+si],al
00001131  0000              add [bx+si],al
00001133  0001              add [bx+di],al
00001135  7A52              jpe 0x1189
00001137  0001              add [bx+di],al
00001139  7C08              jl 0x1143
0000113B  011B              add [bp+di],bx
0000113D  0C04              or al,0x4
0000113F  0488              add al,0x88
00001141  0100              add [bx+si],ax
00001143  001C              add [si],bl
00001145  0000              add [bx+si],al
00001147  001C              add [si],bl
00001149  0000              add [bx+si],al
0000114B  0072F0            add [bp+si-0x10],dh
0000114E  FF                db 0xff
0000114F  FF05              inc word [di]
00001151  0000              add [bx+si],al
00001153  0000              add [bx+si],al
00001155  41                inc cx
00001156  0E                push cs
00001157  08850242          or [di+0x4202],al
0000115B  0D0541            or ax,0x4105
0000115E  C50C              lds cx,[si]
00001160  0404              add al,0x4
00001162  0000              add [bx+si],al
00001164  1C00              sbb al,0x0
00001166  0000              add [bx+si],al
00001168  3C00              cmp al,0x0
0000116A  0000              add [bx+si],al
0000116C  57                push di
0000116D  F0                lock
0000116E  FF                db 0xff
0000116F  FF05              inc word [di]
00001171  0000              add [bx+si],al
00001173  0000              add [bx+si],al
00001175  41                inc cx
00001176  0E                push cs
00001177  08850242          or [di+0x4202],al
0000117B  0D0541            or ax,0x4105
0000117E  C50C              lds cx,[si]
00001180  0404              add al,0x4
00001182  0000              add [bx+si],al
00001184  1C00              sbb al,0x0
00001186  0000              add [bx+si],al
00001188  5C                pop sp
00001189  0000              add [bx+si],al
0000118B  003C              add [si],bh
0000118D  F0                lock
0000118E  FF                db 0xff
0000118F  FF05              inc word [di]
00001191  0000              add [bx+si],al
00001193  0000              add [bx+si],al
00001195  41                inc cx
00001196  0E                push cs
00001197  08850242          or [di+0x4202],al
0000119B  0D0541            or ax,0x4105
0000119E  C50C              lds cx,[si]
000011A0  0404              add al,0x4
000011A2  0000              add [bx+si],al
000011A4  1C00              sbb al,0x0
000011A6  0000              add [bx+si],al
000011A8  7C00              jl 0x11aa
000011AA  0000              add [bx+si],al
000011AC  21F0              and ax,si
000011AE  FF                db 0xff
000011AF  FF05              inc word [di]
000011B1  0000              add [bx+si],al
000011B3  0000              add [bx+si],al
000011B5  41                inc cx
000011B6  0E                push cs
000011B7  08850242          or [di+0x4202],al
000011BB  0D0541            or ax,0x4105
000011BE  C50C              lds cx,[si]
000011C0  0404              add al,0x4
000011C2  0000              add [bx+si],al
000011C4  1C00              sbb al,0x0
000011C6  0000              add [bx+si],al
000011C8  9C                pushfw
000011C9  0000              add [bx+si],al
000011CB  0006F0FF          add [0xfff0],al
000011CF  FF05              inc word [di]
000011D1  0000              add [bx+si],al
000011D3  0000              add [bx+si],al
000011D5  41                inc cx
000011D6  0E                push cs
000011D7  08850242          or [di+0x4202],al
000011DB  0D0541            or ax,0x4105
000011DE  C50C              lds cx,[si]
000011E0  0404              add al,0x4
000011E2  0000              add [bx+si],al
000011E4  1C00              sbb al,0x0
000011E6  0000              add [bx+si],al
000011E8  BC0000            mov sp,0x0
000011EB  00EB              add bl,ch
000011ED  EF                out dx,ax
000011EE  FF                db 0xff
000011EF  FF05              inc word [di]
000011F1  0000              add [bx+si],al
000011F3  0000              add [bx+si],al
000011F5  41                inc cx
000011F6  0E                push cs
000011F7  08850242          or [di+0x4202],al
000011FB  0D0541            or ax,0x4105
000011FE  C50C              lds cx,[si]
00001200  0404              add al,0x4
00001202  0000              add [bx+si],al
00001204  1C00              sbb al,0x0
00001206  0000              add [bx+si],al
00001208  DC00              fadd qword [bx+si]
0000120A  0000              add [bx+si],al
0000120C  D0EF              shr bh,1
0000120E  FF                db 0xff
0000120F  FF05              inc word [di]
00001211  0000              add [bx+si],al
00001213  0000              add [bx+si],al
00001215  41                inc cx
00001216  0E                push cs
00001217  08850242          or [di+0x4202],al
0000121B  0D0541            or ax,0x4105
0000121E  C50C              lds cx,[si]
00001220  0404              add al,0x4
00001222  0000              add [bx+si],al
00001224  1C00              sbb al,0x0
00001226  0000              add [bx+si],al
00001228  FC                cld
00001229  0000              add [bx+si],al
0000122B  00B5EFFF          add [di-0x11],dh
0000122F  FF05              inc word [di]
00001231  0000              add [bx+si],al
00001233  0000              add [bx+si],al
00001235  41                inc cx
00001236  0E                push cs
00001237  08850242          or [di+0x4202],al
0000123B  0D0541            or ax,0x4105
0000123E  C50C              lds cx,[si]
00001240  0404              add al,0x4
00001242  0000              add [bx+si],al
00001244  1C00              sbb al,0x0
00001246  0000              add [bx+si],al
00001248  1C01              sbb al,0x1
0000124A  0000              add [bx+si],al
0000124C  9AEFFFFF05        call word 0x5ff:0xffef
00001251  0000              add [bx+si],al
00001253  0000              add [bx+si],al
00001255  41                inc cx
00001256  0E                push cs
00001257  08850242          or [di+0x4202],al
0000125B  0D0541            or ax,0x4105
0000125E  C50C              lds cx,[si]
00001260  0404              add al,0x4
00001262  0000              add [bx+si],al
00001264  1C00              sbb al,0x0
00001266  0000              add [bx+si],al
00001268  3C01              cmp al,0x1
0000126A  0000              add [bx+si],al
0000126C  7FEF              jg 0x125d
0000126E  FF                db 0xff
0000126F  FF05              inc word [di]
00001271  0000              add [bx+si],al
00001273  0000              add [bx+si],al
00001275  41                inc cx
00001276  0E                push cs
00001277  08850242          or [di+0x4202],al
0000127B  0D0541            or ax,0x4105
0000127E  C50C              lds cx,[si]
00001280  0404              add al,0x4
00001282  0000              add [bx+si],al
00001284  1C00              sbb al,0x0
00001286  0000              add [bx+si],al
00001288  5C                pop sp
00001289  0100              add [bx+si],ax
0000128B  0064EF            add [si-0x11],ah
0000128E  FF                db 0xff
0000128F  FF05              inc word [di]
00001291  0000              add [bx+si],al
00001293  0000              add [bx+si],al
00001295  41                inc cx
00001296  0E                push cs
00001297  08850242          or [di+0x4202],al
0000129B  0D0541            or ax,0x4105
0000129E  C50C              lds cx,[si]
000012A0  0404              add al,0x4
000012A2  0000              add [bx+si],al
000012A4  1C00              sbb al,0x0
000012A6  0000              add [bx+si],al
000012A8  7C01              jl 0x12ab
000012AA  0000              add [bx+si],al
000012AC  49                dec cx
000012AD  EF                out dx,ax
000012AE  FF                db 0xff
000012AF  FF05              inc word [di]
000012B1  0000              add [bx+si],al
000012B3  0000              add [bx+si],al
000012B5  41                inc cx
000012B6  0E                push cs
000012B7  08850242          or [di+0x4202],al
000012BB  0D0541            or ax,0x4105
000012BE  C50C              lds cx,[si]
000012C0  0404              add al,0x4
000012C2  0000              add [bx+si],al
000012C4  1C00              sbb al,0x0
000012C6  0000              add [bx+si],al
000012C8  9C                pushfw
000012C9  0100              add [bx+si],ax
000012CB  002EEFFF          add [0xffef],ch
000012CF  FF05              inc word [di]
000012D1  0000              add [bx+si],al
000012D3  0000              add [bx+si],al
000012D5  41                inc cx
000012D6  0E                push cs
000012D7  08850242          or [di+0x4202],al
000012DB  0D0541            or ax,0x4105
000012DE  C50C              lds cx,[si]
000012E0  0404              add al,0x4
000012E2  0000              add [bx+si],al
000012E4  1C00              sbb al,0x0
000012E6  0000              add [bx+si],al
000012E8  BC0100            mov sp,0x1
000012EB  0013              add [bp+di],dl
000012ED  EF                out dx,ax
000012EE  FF                db 0xff
000012EF  FF05              inc word [di]
000012F1  0000              add [bx+si],al
000012F3  0000              add [bx+si],al
000012F5  41                inc cx
000012F6  0E                push cs
000012F7  08850242          or [di+0x4202],al
000012FB  0D0541            or ax,0x4105
000012FE  C50C              lds cx,[si]
00001300  0404              add al,0x4
00001302  0000              add [bx+si],al
00001304  1C00              sbb al,0x0
00001306  0000              add [bx+si],al
00001308  DC01              fadd qword [bx+di]
0000130A  0000              add [bx+si],al
0000130C  F8                clc
0000130D  EE                out dx,al
0000130E  FF                db 0xff
0000130F  FF05              inc word [di]
00001311  0000              add [bx+si],al
00001313  0000              add [bx+si],al
00001315  41                inc cx
00001316  0E                push cs
00001317  08850242          or [di+0x4202],al
0000131B  0D0541            or ax,0x4105
0000131E  C50C              lds cx,[si]
00001320  0404              add al,0x4
00001322  0000              add [bx+si],al
00001324  1C00              sbb al,0x0
00001326  0000              add [bx+si],al
00001328  FC                cld
00001329  0100              add [bx+si],ax
0000132B  00DD              add ch,bl
0000132D  EE                out dx,al
0000132E  FF                db 0xff
0000132F  FF05              inc word [di]
00001331  0000              add [bx+si],al
00001333  0000              add [bx+si],al
00001335  41                inc cx
00001336  0E                push cs
00001337  08850242          or [di+0x4202],al
0000133B  0D0541            or ax,0x4105
0000133E  C50C              lds cx,[si]
00001340  0404              add al,0x4
00001342  0000              add [bx+si],al
00001344  1C00              sbb al,0x0
00001346  0000              add [bx+si],al
00001348  1C02              sbb al,0x2
0000134A  0000              add [bx+si],al
0000134C  C2EEFF            ret 0xffee
0000134F  FF05              inc word [di]
00001351  0000              add [bx+si],al
00001353  0000              add [bx+si],al
00001355  41                inc cx
00001356  0E                push cs
00001357  08850242          or [di+0x4202],al
0000135B  0D0541            or ax,0x4105
0000135E  C50C              lds cx,[si]
00001360  0404              add al,0x4
00001362  0000              add [bx+si],al
00001364  1C00              sbb al,0x0
00001366  0000              add [bx+si],al
00001368  3C02              cmp al,0x2
0000136A  0000              add [bx+si],al
0000136C  A7                cmpsw
0000136D  EE                out dx,al
0000136E  FF                db 0xff
0000136F  FF05              inc word [di]
00001371  0000              add [bx+si],al
00001373  0000              add [bx+si],al
00001375  41                inc cx
00001376  0E                push cs
00001377  08850242          or [di+0x4202],al
0000137B  0D0541            or ax,0x4105
0000137E  C50C              lds cx,[si]
00001380  0404              add al,0x4
00001382  0000              add [bx+si],al
00001384  1C00              sbb al,0x0
00001386  0000              add [bx+si],al
00001388  5C                pop sp
00001389  0200              add al,[bx+si]
0000138B  008CEEFF          add [si-0x12],cl
0000138F  FF05              inc word [di]
00001391  0000              add [bx+si],al
00001393  0000              add [bx+si],al
00001395  41                inc cx
00001396  0E                push cs
00001397  08850242          or [di+0x4202],al
0000139B  0D0541            or ax,0x4105
0000139E  C50C              lds cx,[si]
000013A0  0404              add al,0x4
000013A2  0000              add [bx+si],al
000013A4  1C00              sbb al,0x0
000013A6  0000              add [bx+si],al
000013A8  7C02              jl 0x13ac
000013AA  0000              add [bx+si],al
000013AC  71EE              jno 0x139c
000013AE  FF                db 0xff
000013AF  FF05              inc word [di]
000013B1  0000              add [bx+si],al
000013B3  0000              add [bx+si],al
000013B5  41                inc cx
000013B6  0E                push cs
000013B7  08850242          or [di+0x4202],al
000013BB  0D0541            or ax,0x4105
000013BE  C50C              lds cx,[si]
000013C0  0404              add al,0x4
000013C2  0000              add [bx+si],al
000013C4  1C00              sbb al,0x0
000013C6  0000              add [bx+si],al
000013C8  9C                pushfw
000013C9  0200              add al,[bx+si]
000013CB  0056EE            add [bp-0x12],dl
000013CE  FF                db 0xff
000013CF  FF05              inc word [di]
000013D1  0000              add [bx+si],al
000013D3  0000              add [bx+si],al
000013D5  41                inc cx
000013D6  0E                push cs
000013D7  08850242          or [di+0x4202],al
000013DB  0D0541            or ax,0x4105
000013DE  C50C              lds cx,[si]
000013E0  0404              add al,0x4
000013E2  0000              add [bx+si],al
000013E4  1C00              sbb al,0x0
000013E6  0000              add [bx+si],al
000013E8  BC0200            mov sp,0x2
000013EB  003B              add [bp+di],bh
000013ED  EE                out dx,al
000013EE  FF                db 0xff
000013EF  FF05              inc word [di]
000013F1  0000              add [bx+si],al
000013F3  0000              add [bx+si],al
000013F5  41                inc cx
000013F6  0E                push cs
000013F7  08850242          or [di+0x4202],al
000013FB  0D0541            or ax,0x4105
000013FE  C50C              lds cx,[si]
00001400  0404              add al,0x4
00001402  0000              add [bx+si],al
00001404  1C00              sbb al,0x0
00001406  0000              add [bx+si],al
00001408  DC02              fadd qword [bp+si]
0000140A  0000              add [bx+si],al
0000140C  20EE              and dh,ch
0000140E  FF                db 0xff
0000140F  FF05              inc word [di]
00001411  0000              add [bx+si],al
00001413  0000              add [bx+si],al
00001415  41                inc cx
00001416  0E                push cs
00001417  08850242          or [di+0x4202],al
0000141B  0D0541            or ax,0x4105
0000141E  C50C              lds cx,[si]
00001420  0404              add al,0x4
00001422  0000              add [bx+si],al
00001424  1C00              sbb al,0x0
00001426  0000              add [bx+si],al
00001428  FC                cld
00001429  0200              add al,[bx+si]
0000142B  0005              add [di],al
0000142D  EE                out dx,al
0000142E  FF                db 0xff
0000142F  FF05              inc word [di]
00001431  0000              add [bx+si],al
00001433  0000              add [bx+si],al
00001435  41                inc cx
00001436  0E                push cs
00001437  08850242          or [di+0x4202],al
0000143B  0D0541            or ax,0x4105
0000143E  C50C              lds cx,[si]
00001440  0404              add al,0x4
00001442  0000              add [bx+si],al
00001444  1C00              sbb al,0x0
00001446  0000              add [bx+si],al
00001448  1C03              sbb al,0x3
0000144A  0000              add [bx+si],al
0000144C  EAEDFFFF05        jmp word 0x5ff:0xffed
00001451  0000              add [bx+si],al
00001453  0000              add [bx+si],al
00001455  41                inc cx
00001456  0E                push cs
00001457  08850242          or [di+0x4202],al
0000145B  0D0541            or ax,0x4105
0000145E  C50C              lds cx,[si]
00001460  0404              add al,0x4
00001462  0000              add [bx+si],al
00001464  1C00              sbb al,0x0
00001466  0000              add [bx+si],al
00001468  3C03              cmp al,0x3
0000146A  0000              add [bx+si],al
0000146C  CF                iretw
0000146D  ED                in ax,dx
0000146E  FF                db 0xff
0000146F  FF05              inc word [di]
00001471  0000              add [bx+si],al
00001473  0000              add [bx+si],al
00001475  41                inc cx
00001476  0E                push cs
00001477  08850242          or [di+0x4202],al
0000147B  0D0541            or ax,0x4105
0000147E  C50C              lds cx,[si]
00001480  0404              add al,0x4
00001482  0000              add [bx+si],al
00001484  1C00              sbb al,0x0
00001486  0000              add [bx+si],al
00001488  5C                pop sp
00001489  0300              add ax,[bx+si]
0000148B  00B4EDFF          add [si-0x13],dh
0000148F  FF05              inc word [di]
00001491  0000              add [bx+si],al
00001493  0000              add [bx+si],al
00001495  41                inc cx
00001496  0E                push cs
00001497  08850242          or [di+0x4202],al
0000149B  0D0541            or ax,0x4105
0000149E  C50C              lds cx,[si]
000014A0  0404              add al,0x4
000014A2  0000              add [bx+si],al
000014A4  1C00              sbb al,0x0
000014A6  0000              add [bx+si],al
000014A8  7C03              jl 0x14ad
000014AA  0000              add [bx+si],al
000014AC  99                cwd
000014AD  ED                in ax,dx
000014AE  FF                db 0xff
000014AF  FF05              inc word [di]
000014B1  0000              add [bx+si],al
000014B3  0000              add [bx+si],al
000014B5  41                inc cx
000014B6  0E                push cs
000014B7  08850242          or [di+0x4202],al
000014BB  0D0541            or ax,0x4105
000014BE  C50C              lds cx,[si]
000014C0  0404              add al,0x4
000014C2  0000              add [bx+si],al
000014C4  1C00              sbb al,0x0
000014C6  0000              add [bx+si],al
000014C8  9C                pushfw
000014C9  0300              add ax,[bx+si]
000014CB  007EED            add [bp-0x13],bh
000014CE  FF                db 0xff
000014CF  FF05              inc word [di]
000014D1  0000              add [bx+si],al
000014D3  0000              add [bx+si],al
000014D5  41                inc cx
000014D6  0E                push cs
000014D7  08850242          or [di+0x4202],al
000014DB  0D0541            or ax,0x4105
000014DE  C50C              lds cx,[si]
000014E0  0404              add al,0x4
000014E2  0000              add [bx+si],al
000014E4  1C00              sbb al,0x0
000014E6  0000              add [bx+si],al
000014E8  BC0300            mov sp,0x3
000014EB  0063ED            add [bp+di-0x13],ah
000014EE  FF                db 0xff
000014EF  FF05              inc word [di]
000014F1  0000              add [bx+si],al
000014F3  0000              add [bx+si],al
000014F5  41                inc cx
000014F6  0E                push cs
000014F7  08850242          or [di+0x4202],al
000014FB  0D0541            or ax,0x4105
000014FE  C50C              lds cx,[si]
00001500  0404              add al,0x4
00001502  0000              add [bx+si],al
00001504  1C00              sbb al,0x0
00001506  0000              add [bx+si],al
00001508  DC03              fadd qword [bp+di]
0000150A  0000              add [bx+si],al
0000150C  48                dec ax
0000150D  ED                in ax,dx
0000150E  FF                db 0xff
0000150F  FF05              inc word [di]
00001511  0000              add [bx+si],al
00001513  0000              add [bx+si],al
00001515  41                inc cx
00001516  0E                push cs
00001517  08850242          or [di+0x4202],al
0000151B  0D0541            or ax,0x4105
0000151E  C50C              lds cx,[si]
00001520  0404              add al,0x4
00001522  0000              add [bx+si],al
00001524  1C00              sbb al,0x0
00001526  0000              add [bx+si],al
00001528  FC                cld
00001529  0300              add ax,[bx+si]
0000152B  002D              add [di],ch
0000152D  ED                in ax,dx
0000152E  FF                db 0xff
0000152F  FF05              inc word [di]
00001531  0000              add [bx+si],al
00001533  0000              add [bx+si],al
00001535  41                inc cx
00001536  0E                push cs
00001537  08850242          or [di+0x4202],al
0000153B  0D0541            or ax,0x4105
0000153E  C50C              lds cx,[si]
00001540  0404              add al,0x4
00001542  0000              add [bx+si],al
00001544  1C00              sbb al,0x0
00001546  0000              add [bx+si],al
00001548  1C04              sbb al,0x4
0000154A  0000              add [bx+si],al
0000154C  12ED              adc ch,ch
0000154E  FF                db 0xff
0000154F  FFA80400          jmp word far [bx+si+0x4]
00001553  0000              add [bx+si],al
00001555  41                inc cx
00001556  0E                push cs
00001557  08850242          or [di+0x4202],al
0000155B  0D0503            or ax,0x305
0000155E  A4                movsb
0000155F  04C5              add al,0xc5
00001561  0C04              or al,0x4
00001563  0400              add al,0x0
00001565  800B00            or byte [bp+di],0x0
00001568  0000              add [bx+si],al
0000156A  0000              add [bx+si],al
0000156C  0000              add [bx+si],al
0000156E  0000              add [bx+si],al
00001570  0000              add [bx+si],al
00001572  0000              add [bx+si],al
00001574  0000              add [bx+si],al
00001576  0000              add [bx+si],al
00001578  0000              add [bx+si],al
0000157A  0000              add [bx+si],al
0000157C  0000              add [bx+si],al
0000157E  0000              add [bx+si],al
00001580  0000              add [bx+si],al
00001582  0000              add [bx+si],al
00001584  0000              add [bx+si],al
00001586  0000              add [bx+si],al
00001588  0000              add [bx+si],al
0000158A  0000              add [bx+si],al
0000158C  0000              add [bx+si],al
0000158E  0000              add [bx+si],al
00001590  0000              add [bx+si],al
00001592  0000              add [bx+si],al
00001594  0000              add [bx+si],al
00001596  0000              add [bx+si],al
00001598  0000              add [bx+si],al
0000159A  0000              add [bx+si],al
0000159C  0000              add [bx+si],al
0000159E  0000              add [bx+si],al
000015A0  0000              add [bx+si],al
000015A2  0000              add [bx+si],al
000015A4  0000              add [bx+si],al
000015A6  0000              add [bx+si],al
000015A8  0000              add [bx+si],al
000015AA  0000              add [bx+si],al
000015AC  0000              add [bx+si],al
000015AE  0000              add [bx+si],al
000015B0  0000              add [bx+si],al
000015B2  0000              add [bx+si],al
000015B4  0000              add [bx+si],al
000015B6  0000              add [bx+si],al
000015B8  0000              add [bx+si],al
000015BA  0000              add [bx+si],al
000015BC  0000              add [bx+si],al
000015BE  0000              add [bx+si],al
000015C0  0000              add [bx+si],al
000015C2  0000              add [bx+si],al
000015C4  0000              add [bx+si],al
000015C6  0000              add [bx+si],al
000015C8  0000              add [bx+si],al
000015CA  0000              add [bx+si],al
000015CC  0000              add [bx+si],al
000015CE  0000              add [bx+si],al
000015D0  0000              add [bx+si],al
000015D2  0000              add [bx+si],al
000015D4  0000              add [bx+si],al
000015D6  0000              add [bx+si],al
000015D8  0000              add [bx+si],al
000015DA  0000              add [bx+si],al
000015DC  0000              add [bx+si],al
000015DE  0000              add [bx+si],al
000015E0  0000              add [bx+si],al
000015E2  0000              add [bx+si],al
000015E4  0000              add [bx+si],al
000015E6  0000              add [bx+si],al
000015E8  0000              add [bx+si],al
000015EA  0000              add [bx+si],al
000015EC  0000              add [bx+si],al
000015EE  0000              add [bx+si],al
000015F0  0000              add [bx+si],al
000015F2  0000              add [bx+si],al
000015F4  0000              add [bx+si],al
000015F6  0000              add [bx+si],al
000015F8  0000              add [bx+si],al
000015FA  0000              add [bx+si],al
000015FC  0000              add [bx+si],al
000015FE  0000              add [bx+si],al
00001600  0000              add [bx+si],al
00001602  0000              add [bx+si],al
00001604  0000              add [bx+si],al
00001606  0000              add [bx+si],al
00001608  0000              add [bx+si],al
0000160A  0000              add [bx+si],al
0000160C  0000              add [bx+si],al
0000160E  0000              add [bx+si],al
00001610  0000              add [bx+si],al
00001612  0000              add [bx+si],al
00001614  0000              add [bx+si],al
00001616  0000              add [bx+si],al
00001618  0000              add [bx+si],al
0000161A  0000              add [bx+si],al
0000161C  0000              add [bx+si],al
0000161E  0000              add [bx+si],al
00001620  0000              add [bx+si],al
00001622  0000              add [bx+si],al
00001624  0000              add [bx+si],al
00001626  0000              add [bx+si],al
00001628  0000              add [bx+si],al
0000162A  0000              add [bx+si],al
0000162C  0000              add [bx+si],al
0000162E  0000              add [bx+si],al
00001630  0000              add [bx+si],al
00001632  0000              add [bx+si],al
00001634  0000              add [bx+si],al
00001636  0000              add [bx+si],al
00001638  0000              add [bx+si],al
0000163A  0000              add [bx+si],al
0000163C  0000              add [bx+si],al
0000163E  0000              add [bx+si],al
00001640  0000              add [bx+si],al
00001642  0000              add [bx+si],al
00001644  0000              add [bx+si],al
00001646  0000              add [bx+si],al
00001648  0000              add [bx+si],al
0000164A  0000              add [bx+si],al
0000164C  0000              add [bx+si],al
0000164E  0000              add [bx+si],al
00001650  0000              add [bx+si],al
00001652  0000              add [bx+si],al
00001654  0000              add [bx+si],al
00001656  0000              add [bx+si],al
00001658  0000              add [bx+si],al
0000165A  0000              add [bx+si],al
0000165C  0000              add [bx+si],al
0000165E  0000              add [bx+si],al
00001660  0000              add [bx+si],al
00001662  0000              add [bx+si],al
00001664  0000              add [bx+si],al
00001666  0000              add [bx+si],al
00001668  0000              add [bx+si],al
0000166A  0000              add [bx+si],al
0000166C  0000              add [bx+si],al
0000166E  0000              add [bx+si],al
00001670  0000              add [bx+si],al
00001672  0000              add [bx+si],al
00001674  0000              add [bx+si],al
00001676  0000              add [bx+si],al
00001678  0000              add [bx+si],al
0000167A  0000              add [bx+si],al
0000167C  0000              add [bx+si],al
0000167E  0000              add [bx+si],al
00001680  0000              add [bx+si],al
00001682  0000              add [bx+si],al
00001684  0000              add [bx+si],al
00001686  0000              add [bx+si],al
00001688  0000              add [bx+si],al
0000168A  0000              add [bx+si],al
0000168C  0000              add [bx+si],al
0000168E  0000              add [bx+si],al
00001690  0000              add [bx+si],al
00001692  0000              add [bx+si],al
00001694  0000              add [bx+si],al
00001696  0000              add [bx+si],al
00001698  0000              add [bx+si],al
0000169A  0000              add [bx+si],al
0000169C  0000              add [bx+si],al
0000169E  0000              add [bx+si],al
000016A0  0000              add [bx+si],al
000016A2  0000              add [bx+si],al
000016A4  0000              add [bx+si],al
000016A6  0000              add [bx+si],al
000016A8  0000              add [bx+si],al
000016AA  0000              add [bx+si],al
000016AC  0000              add [bx+si],al
000016AE  0000              add [bx+si],al
000016B0  0000              add [bx+si],al
000016B2  0000              add [bx+si],al
000016B4  0000              add [bx+si],al
000016B6  0000              add [bx+si],al
000016B8  0000              add [bx+si],al
000016BA  0000              add [bx+si],al
000016BC  0000              add [bx+si],al
000016BE  0000              add [bx+si],al
000016C0  0000              add [bx+si],al
000016C2  0000              add [bx+si],al
000016C4  0000              add [bx+si],al
000016C6  0000              add [bx+si],al
000016C8  0000              add [bx+si],al
000016CA  0000              add [bx+si],al
000016CC  0000              add [bx+si],al
000016CE  0000              add [bx+si],al
000016D0  0000              add [bx+si],al
000016D2  0000              add [bx+si],al
000016D4  0000              add [bx+si],al
000016D6  0000              add [bx+si],al
000016D8  0000              add [bx+si],al
000016DA  0000              add [bx+si],al
000016DC  0000              add [bx+si],al
000016DE  0000              add [bx+si],al
000016E0  0000              add [bx+si],al
000016E2  0000              add [bx+si],al
000016E4  0000              add [bx+si],al
000016E6  0000              add [bx+si],al
000016E8  0000              add [bx+si],al
000016EA  0000              add [bx+si],al
000016EC  0000              add [bx+si],al
000016EE  0000              add [bx+si],al
000016F0  0000              add [bx+si],al
000016F2  0000              add [bx+si],al
000016F4  0000              add [bx+si],al
000016F6  0000              add [bx+si],al
000016F8  0000              add [bx+si],al
000016FA  0000              add [bx+si],al
000016FC  0000              add [bx+si],al
000016FE  0000              add [bx+si],al
00001700  0000              add [bx+si],al
00001702  0000              add [bx+si],al
00001704  0000              add [bx+si],al
00001706  0000              add [bx+si],al
00001708  0000              add [bx+si],al
0000170A  0000              add [bx+si],al
0000170C  0000              add [bx+si],al
0000170E  0000              add [bx+si],al
00001710  0000              add [bx+si],al
00001712  0000              add [bx+si],al
00001714  0000              add [bx+si],al
00001716  0000              add [bx+si],al
00001718  0000              add [bx+si],al
0000171A  0000              add [bx+si],al
0000171C  0000              add [bx+si],al
0000171E  0000              add [bx+si],al
00001720  0000              add [bx+si],al
00001722  0000              add [bx+si],al
00001724  0000              add [bx+si],al
00001726  0000              add [bx+si],al
00001728  0000              add [bx+si],al
0000172A  0000              add [bx+si],al
0000172C  0000              add [bx+si],al
0000172E  0000              add [bx+si],al
00001730  0000              add [bx+si],al
00001732  0000              add [bx+si],al
00001734  0000              add [bx+si],al
00001736  0000              add [bx+si],al
00001738  0000              add [bx+si],al
0000173A  0000              add [bx+si],al
0000173C  0000              add [bx+si],al
0000173E  0000              add [bx+si],al
00001740  0000              add [bx+si],al
00001742  0000              add [bx+si],al
00001744  0000              add [bx+si],al
00001746  0000              add [bx+si],al
00001748  0000              add [bx+si],al
0000174A  0000              add [bx+si],al
0000174C  0000              add [bx+si],al
0000174E  0000              add [bx+si],al
00001750  0000              add [bx+si],al
00001752  0000              add [bx+si],al
00001754  0000              add [bx+si],al
00001756  0000              add [bx+si],al
00001758  0000              add [bx+si],al
0000175A  0000              add [bx+si],al
0000175C  0000              add [bx+si],al
0000175E  0000              add [bx+si],al
00001760  0000              add [bx+si],al
00001762  0000              add [bx+si],al
00001764  0000              add [bx+si],al
00001766  0000              add [bx+si],al
00001768  0000              add [bx+si],al
0000176A  0000              add [bx+si],al
0000176C  0000              add [bx+si],al
0000176E  0000              add [bx+si],al
00001770  0000              add [bx+si],al
00001772  0000              add [bx+si],al
00001774  0000              add [bx+si],al
00001776  0000              add [bx+si],al
00001778  0000              add [bx+si],al
0000177A  0000              add [bx+si],al
0000177C  0000              add [bx+si],al
0000177E  0000              add [bx+si],al
00001780  0000              add [bx+si],al
00001782  0000              add [bx+si],al
00001784  0000              add [bx+si],al
00001786  0000              add [bx+si],al
00001788  0000              add [bx+si],al
0000178A  0000              add [bx+si],al
0000178C  0000              add [bx+si],al
0000178E  0000              add [bx+si],al
00001790  0000              add [bx+si],al
00001792  0000              add [bx+si],al
00001794  0000              add [bx+si],al
00001796  0000              add [bx+si],al
00001798  0000              add [bx+si],al
0000179A  0000              add [bx+si],al
0000179C  0000              add [bx+si],al
0000179E  0000              add [bx+si],al
000017A0  0000              add [bx+si],al
000017A2  0000              add [bx+si],al
000017A4  0000              add [bx+si],al
000017A6  0000              add [bx+si],al
000017A8  0000              add [bx+si],al
000017AA  0000              add [bx+si],al
000017AC  0000              add [bx+si],al
000017AE  0000              add [bx+si],al
000017B0  0000              add [bx+si],al
000017B2  0000              add [bx+si],al
000017B4  0000              add [bx+si],al
000017B6  0000              add [bx+si],al
000017B8  0000              add [bx+si],al
000017BA  0000              add [bx+si],al
000017BC  0000              add [bx+si],al
000017BE  0000              add [bx+si],al
000017C0  0000              add [bx+si],al
000017C2  0000              add [bx+si],al
000017C4  0000              add [bx+si],al
000017C6  0000              add [bx+si],al
000017C8  0000              add [bx+si],al
000017CA  0000              add [bx+si],al
000017CC  0000              add [bx+si],al
000017CE  0000              add [bx+si],al
000017D0  0000              add [bx+si],al
000017D2  0000              add [bx+si],al
000017D4  0000              add [bx+si],al
000017D6  0000              add [bx+si],al
000017D8  0000              add [bx+si],al
000017DA  0000              add [bx+si],al
000017DC  0000              add [bx+si],al
000017DE  0000              add [bx+si],al
000017E0  0000              add [bx+si],al
000017E2  0000              add [bx+si],al
000017E4  0000              add [bx+si],al
000017E6  0000              add [bx+si],al
000017E8  0000              add [bx+si],al
000017EA  0000              add [bx+si],al
000017EC  0000              add [bx+si],al
000017EE  0000              add [bx+si],al
000017F0  0000              add [bx+si],al
000017F2  0000              add [bx+si],al
000017F4  0000              add [bx+si],al
000017F6  0000              add [bx+si],al
000017F8  0000              add [bx+si],al
000017FA  0000              add [bx+si],al
000017FC  0000              add [bx+si],al
000017FE  0000              add [bx+si],al
00001800  0000              add [bx+si],al
00001802  0000              add [bx+si],al
00001804  0000              add [bx+si],al
00001806  0000              add [bx+si],al
00001808  0000              add [bx+si],al
0000180A  0000              add [bx+si],al
0000180C  0000              add [bx+si],al
0000180E  0000              add [bx+si],al
00001810  0000              add [bx+si],al
00001812  0000              add [bx+si],al
00001814  0000              add [bx+si],al
00001816  0000              add [bx+si],al
00001818  0000              add [bx+si],al
0000181A  0000              add [bx+si],al
0000181C  0000              add [bx+si],al
0000181E  0000              add [bx+si],al
00001820  0000              add [bx+si],al
00001822  0000              add [bx+si],al
00001824  0000              add [bx+si],al
00001826  0000              add [bx+si],al
00001828  0000              add [bx+si],al
0000182A  0000              add [bx+si],al
0000182C  0000              add [bx+si],al
0000182E  0000              add [bx+si],al
00001830  0000              add [bx+si],al
00001832  0000              add [bx+si],al
00001834  0000              add [bx+si],al
00001836  0000              add [bx+si],al
00001838  0000              add [bx+si],al
0000183A  0000              add [bx+si],al
0000183C  0000              add [bx+si],al
0000183E  0000              add [bx+si],al
00001840  0000              add [bx+si],al
00001842  0000              add [bx+si],al
00001844  0000              add [bx+si],al
00001846  0000              add [bx+si],al
00001848  0000              add [bx+si],al
0000184A  0000              add [bx+si],al
0000184C  0000              add [bx+si],al
0000184E  0000              add [bx+si],al
00001850  0000              add [bx+si],al
00001852  0000              add [bx+si],al
00001854  0000              add [bx+si],al
00001856  0000              add [bx+si],al
00001858  0000              add [bx+si],al
0000185A  0000              add [bx+si],al
0000185C  0000              add [bx+si],al
0000185E  0000              add [bx+si],al
00001860  0000              add [bx+si],al
00001862  0000              add [bx+si],al
00001864  0000              add [bx+si],al
00001866  0000              add [bx+si],al
00001868  0000              add [bx+si],al
0000186A  0000              add [bx+si],al
0000186C  0000              add [bx+si],al
0000186E  0000              add [bx+si],al
00001870  0000              add [bx+si],al
00001872  0000              add [bx+si],al
00001874  0000              add [bx+si],al
00001876  0000              add [bx+si],al
00001878  0000              add [bx+si],al
0000187A  0000              add [bx+si],al
0000187C  0000              add [bx+si],al
0000187E  0000              add [bx+si],al
00001880  0000              add [bx+si],al
00001882  0000              add [bx+si],al
00001884  0000              add [bx+si],al
00001886  0000              add [bx+si],al
00001888  0000              add [bx+si],al
0000188A  0000              add [bx+si],al
0000188C  0000              add [bx+si],al
0000188E  0000              add [bx+si],al
00001890  0000              add [bx+si],al
00001892  0000              add [bx+si],al
00001894  0000              add [bx+si],al
00001896  0000              add [bx+si],al
00001898  0000              add [bx+si],al
0000189A  0000              add [bx+si],al
0000189C  0000              add [bx+si],al
0000189E  0000              add [bx+si],al
000018A0  0000              add [bx+si],al
000018A2  0000              add [bx+si],al
000018A4  0000              add [bx+si],al
000018A6  0000              add [bx+si],al
000018A8  0000              add [bx+si],al
000018AA  0000              add [bx+si],al
000018AC  0000              add [bx+si],al
000018AE  0000              add [bx+si],al
000018B0  0000              add [bx+si],al
000018B2  0000              add [bx+si],al
000018B4  0000              add [bx+si],al
000018B6  0000              add [bx+si],al
000018B8  0000              add [bx+si],al
000018BA  0000              add [bx+si],al
000018BC  0000              add [bx+si],al
000018BE  0000              add [bx+si],al
000018C0  0000              add [bx+si],al
000018C2  0000              add [bx+si],al
000018C4  0000              add [bx+si],al
000018C6  0000              add [bx+si],al
000018C8  0000              add [bx+si],al
000018CA  0000              add [bx+si],al
000018CC  0000              add [bx+si],al
000018CE  0000              add [bx+si],al
000018D0  0000              add [bx+si],al
000018D2  0000              add [bx+si],al
000018D4  0000              add [bx+si],al
000018D6  0000              add [bx+si],al
000018D8  0000              add [bx+si],al
000018DA  0000              add [bx+si],al
000018DC  0000              add [bx+si],al
000018DE  0000              add [bx+si],al
000018E0  0000              add [bx+si],al
000018E2  0000              add [bx+si],al
000018E4  0000              add [bx+si],al
000018E6  0000              add [bx+si],al
000018E8  0000              add [bx+si],al
000018EA  0000              add [bx+si],al
000018EC  0000              add [bx+si],al
000018EE  0000              add [bx+si],al
000018F0  0000              add [bx+si],al
000018F2  0000              add [bx+si],al
000018F4  0000              add [bx+si],al
000018F6  0000              add [bx+si],al
000018F8  0000              add [bx+si],al
000018FA  0000              add [bx+si],al
000018FC  0000              add [bx+si],al
000018FE  0000              add [bx+si],al
00001900  0000              add [bx+si],al
00001902  0000              add [bx+si],al
00001904  0000              add [bx+si],al
00001906  0000              add [bx+si],al
00001908  0000              add [bx+si],al
0000190A  0000              add [bx+si],al
0000190C  0000              add [bx+si],al
0000190E  0000              add [bx+si],al
00001910  0000              add [bx+si],al
00001912  0000              add [bx+si],al
00001914  0000              add [bx+si],al
00001916  0000              add [bx+si],al
00001918  0000              add [bx+si],al
0000191A  0000              add [bx+si],al
0000191C  0000              add [bx+si],al
0000191E  0000              add [bx+si],al
00001920  0000              add [bx+si],al
00001922  0000              add [bx+si],al
00001924  0000              add [bx+si],al
00001926  0000              add [bx+si],al
00001928  0000              add [bx+si],al
0000192A  0000              add [bx+si],al
0000192C  0000              add [bx+si],al
0000192E  0000              add [bx+si],al
00001930  0000              add [bx+si],al
00001932  0000              add [bx+si],al
00001934  0000              add [bx+si],al
00001936  0000              add [bx+si],al
00001938  0000              add [bx+si],al
0000193A  0000              add [bx+si],al
0000193C  0000              add [bx+si],al
0000193E  0000              add [bx+si],al
00001940  0000              add [bx+si],al
00001942  0000              add [bx+si],al
00001944  0000              add [bx+si],al
00001946  0000              add [bx+si],al
00001948  0000              add [bx+si],al
0000194A  0000              add [bx+si],al
0000194C  0000              add [bx+si],al
0000194E  0000              add [bx+si],al
00001950  0000              add [bx+si],al
00001952  0000              add [bx+si],al
00001954  0000              add [bx+si],al
00001956  0000              add [bx+si],al
00001958  0000              add [bx+si],al
0000195A  0000              add [bx+si],al
0000195C  0000              add [bx+si],al
0000195E  0000              add [bx+si],al
00001960  0000              add [bx+si],al
00001962  0000              add [bx+si],al
00001964  0000              add [bx+si],al
00001966  0000              add [bx+si],al
00001968  0000              add [bx+si],al
0000196A  0000              add [bx+si],al
0000196C  0000              add [bx+si],al
0000196E  0000              add [bx+si],al
00001970  0000              add [bx+si],al
00001972  0000              add [bx+si],al
00001974  0000              add [bx+si],al
00001976  0000              add [bx+si],al
00001978  0000              add [bx+si],al
0000197A  0000              add [bx+si],al
0000197C  0000              add [bx+si],al
0000197E  0000              add [bx+si],al
00001980  0000              add [bx+si],al
00001982  0000              add [bx+si],al
00001984  0000              add [bx+si],al
00001986  0000              add [bx+si],al
00001988  0000              add [bx+si],al
0000198A  0000              add [bx+si],al
0000198C  0000              add [bx+si],al
0000198E  0000              add [bx+si],al
00001990  0000              add [bx+si],al
00001992  0000              add [bx+si],al
00001994  0000              add [bx+si],al
00001996  0000              add [bx+si],al
00001998  0000              add [bx+si],al
0000199A  0000              add [bx+si],al
0000199C  0000              add [bx+si],al
0000199E  0000              add [bx+si],al
000019A0  0000              add [bx+si],al
000019A2  0000              add [bx+si],al
000019A4  0000              add [bx+si],al
000019A6  0000              add [bx+si],al
000019A8  0000              add [bx+si],al
000019AA  0000              add [bx+si],al
000019AC  0000              add [bx+si],al
000019AE  0000              add [bx+si],al
000019B0  0000              add [bx+si],al
000019B2  0000              add [bx+si],al
000019B4  0000              add [bx+si],al
000019B6  0000              add [bx+si],al
000019B8  0000              add [bx+si],al
000019BA  0000              add [bx+si],al
000019BC  0000              add [bx+si],al
000019BE  0000              add [bx+si],al
000019C0  0000              add [bx+si],al
000019C2  0000              add [bx+si],al
000019C4  0000              add [bx+si],al
000019C6  0000              add [bx+si],al
000019C8  0000              add [bx+si],al
000019CA  0000              add [bx+si],al
000019CC  0000              add [bx+si],al
000019CE  0000              add [bx+si],al
000019D0  0000              add [bx+si],al
000019D2  0000              add [bx+si],al
000019D4  0000              add [bx+si],al
000019D6  0000              add [bx+si],al
000019D8  0000              add [bx+si],al
000019DA  0000              add [bx+si],al
000019DC  0000              add [bx+si],al
000019DE  0000              add [bx+si],al
000019E0  0000              add [bx+si],al
000019E2  0000              add [bx+si],al
000019E4  0000              add [bx+si],al
000019E6  0000              add [bx+si],al
000019E8  0000              add [bx+si],al
000019EA  0000              add [bx+si],al
000019EC  0000              add [bx+si],al
000019EE  0000              add [bx+si],al
000019F0  0000              add [bx+si],al
000019F2  0000              add [bx+si],al
000019F4  0000              add [bx+si],al
000019F6  0000              add [bx+si],al
000019F8  0000              add [bx+si],al
000019FA  0000              add [bx+si],al
000019FC  0000              add [bx+si],al
000019FE  0000              add [bx+si],al
00001A00  0000              add [bx+si],al
00001A02  0000              add [bx+si],al
00001A04  0000              add [bx+si],al
00001A06  0000              add [bx+si],al
00001A08  0000              add [bx+si],al
00001A0A  0000              add [bx+si],al
00001A0C  0000              add [bx+si],al
00001A0E  0000              add [bx+si],al
00001A10  0000              add [bx+si],al
00001A12  0000              add [bx+si],al
00001A14  0000              add [bx+si],al
00001A16  0000              add [bx+si],al
00001A18  0000              add [bx+si],al
00001A1A  0000              add [bx+si],al
00001A1C  0000              add [bx+si],al
00001A1E  0000              add [bx+si],al
00001A20  0000              add [bx+si],al
00001A22  0000              add [bx+si],al
00001A24  0000              add [bx+si],al
00001A26  0000              add [bx+si],al
00001A28  0000              add [bx+si],al
00001A2A  0000              add [bx+si],al
00001A2C  0000              add [bx+si],al
00001A2E  0000              add [bx+si],al
00001A30  0000              add [bx+si],al
00001A32  0000              add [bx+si],al
00001A34  0000              add [bx+si],al
00001A36  0000              add [bx+si],al
00001A38  0000              add [bx+si],al
00001A3A  0000              add [bx+si],al
00001A3C  0000              add [bx+si],al
00001A3E  0000              add [bx+si],al
00001A40  0000              add [bx+si],al
00001A42  0000              add [bx+si],al
00001A44  0000              add [bx+si],al
00001A46  0000              add [bx+si],al
00001A48  0000              add [bx+si],al
00001A4A  0000              add [bx+si],al
00001A4C  0000              add [bx+si],al
00001A4E  0000              add [bx+si],al
00001A50  0000              add [bx+si],al
00001A52  0000              add [bx+si],al
00001A54  0000              add [bx+si],al
00001A56  0000              add [bx+si],al
00001A58  0000              add [bx+si],al
00001A5A  0000              add [bx+si],al
00001A5C  0000              add [bx+si],al
00001A5E  0000              add [bx+si],al
00001A60  0000              add [bx+si],al
00001A62  0000              add [bx+si],al
00001A64  0000              add [bx+si],al
00001A66  0000              add [bx+si],al
00001A68  0000              add [bx+si],al
00001A6A  0000              add [bx+si],al
00001A6C  0000              add [bx+si],al
00001A6E  0000              add [bx+si],al
00001A70  0000              add [bx+si],al
00001A72  0000              add [bx+si],al
00001A74  0000              add [bx+si],al
00001A76  0000              add [bx+si],al
00001A78  0000              add [bx+si],al
00001A7A  0000              add [bx+si],al
00001A7C  0000              add [bx+si],al
00001A7E  0000              add [bx+si],al
00001A80  0000              add [bx+si],al
00001A82  0000              add [bx+si],al
00001A84  0000              add [bx+si],al
00001A86  0000              add [bx+si],al
00001A88  0000              add [bx+si],al
00001A8A  0000              add [bx+si],al
00001A8C  0000              add [bx+si],al
00001A8E  0000              add [bx+si],al
00001A90  0000              add [bx+si],al
00001A92  0000              add [bx+si],al
00001A94  0000              add [bx+si],al
00001A96  0000              add [bx+si],al
00001A98  0000              add [bx+si],al
00001A9A  0000              add [bx+si],al
00001A9C  0000              add [bx+si],al
00001A9E  0000              add [bx+si],al
00001AA0  0000              add [bx+si],al
00001AA2  0000              add [bx+si],al
00001AA4  0000              add [bx+si],al
00001AA6  0000              add [bx+si],al
00001AA8  0000              add [bx+si],al
00001AAA  0000              add [bx+si],al
00001AAC  0000              add [bx+si],al
00001AAE  0000              add [bx+si],al
00001AB0  0000              add [bx+si],al
00001AB2  0000              add [bx+si],al
00001AB4  0000              add [bx+si],al
00001AB6  0000              add [bx+si],al
00001AB8  0000              add [bx+si],al
00001ABA  0000              add [bx+si],al
00001ABC  0000              add [bx+si],al
00001ABE  0000              add [bx+si],al
00001AC0  0000              add [bx+si],al
00001AC2  0000              add [bx+si],al
00001AC4  0000              add [bx+si],al
00001AC6  0000              add [bx+si],al
00001AC8  0000              add [bx+si],al
00001ACA  0000              add [bx+si],al
00001ACC  0000              add [bx+si],al
00001ACE  0000              add [bx+si],al
00001AD0  0000              add [bx+si],al
00001AD2  0000              add [bx+si],al
00001AD4  0000              add [bx+si],al
00001AD6  0000              add [bx+si],al
00001AD8  0000              add [bx+si],al
00001ADA  0000              add [bx+si],al
00001ADC  0000              add [bx+si],al
00001ADE  0000              add [bx+si],al
00001AE0  0000              add [bx+si],al
00001AE2  0000              add [bx+si],al
00001AE4  0000              add [bx+si],al
00001AE6  0000              add [bx+si],al
00001AE8  0000              add [bx+si],al
00001AEA  0000              add [bx+si],al
00001AEC  0000              add [bx+si],al
00001AEE  0000              add [bx+si],al
00001AF0  0000              add [bx+si],al
00001AF2  0000              add [bx+si],al
00001AF4  0000              add [bx+si],al
00001AF6  0000              add [bx+si],al
00001AF8  0000              add [bx+si],al
00001AFA  0000              add [bx+si],al
00001AFC  0000              add [bx+si],al
00001AFE  0000              add [bx+si],al
00001B00  0000              add [bx+si],al
00001B02  0000              add [bx+si],al
00001B04  0000              add [bx+si],al
00001B06  0000              add [bx+si],al
00001B08  0000              add [bx+si],al
00001B0A  0000              add [bx+si],al
00001B0C  0000              add [bx+si],al
00001B0E  0000              add [bx+si],al
00001B10  0000              add [bx+si],al
00001B12  0000              add [bx+si],al
00001B14  0000              add [bx+si],al
00001B16  0000              add [bx+si],al
00001B18  0000              add [bx+si],al
00001B1A  0000              add [bx+si],al
00001B1C  0000              add [bx+si],al
00001B1E  0000              add [bx+si],al
00001B20  0000              add [bx+si],al
00001B22  0000              add [bx+si],al
00001B24  0000              add [bx+si],al
00001B26  0000              add [bx+si],al
00001B28  0000              add [bx+si],al
00001B2A  0000              add [bx+si],al
00001B2C  0000              add [bx+si],al
00001B2E  0000              add [bx+si],al
00001B30  0000              add [bx+si],al
00001B32  0000              add [bx+si],al
00001B34  0000              add [bx+si],al
00001B36  0000              add [bx+si],al
00001B38  0000              add [bx+si],al
00001B3A  0000              add [bx+si],al
00001B3C  0000              add [bx+si],al
00001B3E  0000              add [bx+si],al
00001B40  0000              add [bx+si],al
00001B42  0000              add [bx+si],al
00001B44  0000              add [bx+si],al
00001B46  0000              add [bx+si],al
00001B48  0000              add [bx+si],al
00001B4A  0000              add [bx+si],al
00001B4C  0000              add [bx+si],al
00001B4E  0000              add [bx+si],al
00001B50  0000              add [bx+si],al
00001B52  0000              add [bx+si],al
00001B54  0000              add [bx+si],al
00001B56  0000              add [bx+si],al
00001B58  0000              add [bx+si],al
00001B5A  0000              add [bx+si],al
00001B5C  0000              add [bx+si],al
00001B5E  0000              add [bx+si],al
00001B60  0000              add [bx+si],al
00001B62  0000              add [bx+si],al
00001B64  0000              add [bx+si],al
00001B66  0000              add [bx+si],al
00001B68  0000              add [bx+si],al
00001B6A  0000              add [bx+si],al
00001B6C  0000              add [bx+si],al
00001B6E  0000              add [bx+si],al
00001B70  0000              add [bx+si],al
00001B72  0000              add [bx+si],al
00001B74  0000              add [bx+si],al
00001B76  0000              add [bx+si],al
00001B78  0000              add [bx+si],al
00001B7A  0000              add [bx+si],al
00001B7C  0000              add [bx+si],al
00001B7E  0000              add [bx+si],al
00001B80  0000              add [bx+si],al
00001B82  0000              add [bx+si],al
00001B84  0000              add [bx+si],al
00001B86  0000              add [bx+si],al
00001B88  0000              add [bx+si],al
00001B8A  0000              add [bx+si],al
00001B8C  0000              add [bx+si],al
00001B8E  0000              add [bx+si],al
00001B90  0000              add [bx+si],al
00001B92  0000              add [bx+si],al
00001B94  0000              add [bx+si],al
00001B96  0000              add [bx+si],al
00001B98  0000              add [bx+si],al
00001B9A  0000              add [bx+si],al
00001B9C  0000              add [bx+si],al
00001B9E  0000              add [bx+si],al
00001BA0  0000              add [bx+si],al
00001BA2  0000              add [bx+si],al
00001BA4  0000              add [bx+si],al
00001BA6  0000              add [bx+si],al
00001BA8  0000              add [bx+si],al
00001BAA  0000              add [bx+si],al
00001BAC  0000              add [bx+si],al
00001BAE  0000              add [bx+si],al
00001BB0  0000              add [bx+si],al
00001BB2  0000              add [bx+si],al
00001BB4  0000              add [bx+si],al
00001BB6  0000              add [bx+si],al
00001BB8  0000              add [bx+si],al
00001BBA  0000              add [bx+si],al
00001BBC  0000              add [bx+si],al
00001BBE  0000              add [bx+si],al
00001BC0  0000              add [bx+si],al
00001BC2  0000              add [bx+si],al
00001BC4  0000              add [bx+si],al
00001BC6  0000              add [bx+si],al
00001BC8  0000              add [bx+si],al
00001BCA  0000              add [bx+si],al
00001BCC  0000              add [bx+si],al
00001BCE  0000              add [bx+si],al
00001BD0  0000              add [bx+si],al
00001BD2  0000              add [bx+si],al
00001BD4  0000              add [bx+si],al
00001BD6  0000              add [bx+si],al
00001BD8  0000              add [bx+si],al
00001BDA  0000              add [bx+si],al
00001BDC  0000              add [bx+si],al
00001BDE  0000              add [bx+si],al
00001BE0  0000              add [bx+si],al
00001BE2  0000              add [bx+si],al
00001BE4  0000              add [bx+si],al
00001BE6  0000              add [bx+si],al
00001BE8  0000              add [bx+si],al
00001BEA  0000              add [bx+si],al
00001BEC  0000              add [bx+si],al
00001BEE  0000              add [bx+si],al
00001BF0  0000              add [bx+si],al
00001BF2  0000              add [bx+si],al
00001BF4  0000              add [bx+si],al
00001BF6  0000              add [bx+si],al
00001BF8  0000              add [bx+si],al
00001BFA  0000              add [bx+si],al
00001BFC  0000              add [bx+si],al
00001BFE  0000              add [bx+si],al
00001C00  0000              add [bx+si],al
00001C02  0000              add [bx+si],al
00001C04  0000              add [bx+si],al
00001C06  0000              add [bx+si],al
00001C08  0000              add [bx+si],al
00001C0A  0000              add [bx+si],al
00001C0C  0000              add [bx+si],al
00001C0E  0000              add [bx+si],al
00001C10  0000              add [bx+si],al
00001C12  0000              add [bx+si],al
00001C14  0000              add [bx+si],al
00001C16  0000              add [bx+si],al
00001C18  0000              add [bx+si],al
00001C1A  0000              add [bx+si],al
00001C1C  0000              add [bx+si],al
00001C1E  0000              add [bx+si],al
00001C20  0000              add [bx+si],al
00001C22  0000              add [bx+si],al
00001C24  0000              add [bx+si],al
00001C26  0000              add [bx+si],al
00001C28  0000              add [bx+si],al
00001C2A  0000              add [bx+si],al
00001C2C  0000              add [bx+si],al
00001C2E  0000              add [bx+si],al
00001C30  0000              add [bx+si],al
00001C32  0000              add [bx+si],al
00001C34  0000              add [bx+si],al
00001C36  0000              add [bx+si],al
00001C38  0000              add [bx+si],al
00001C3A  0000              add [bx+si],al
00001C3C  0000              add [bx+si],al
00001C3E  0000              add [bx+si],al
00001C40  0000              add [bx+si],al
00001C42  0000              add [bx+si],al
00001C44  0000              add [bx+si],al
00001C46  0000              add [bx+si],al
00001C48  0000              add [bx+si],al
00001C4A  0000              add [bx+si],al
00001C4C  0000              add [bx+si],al
00001C4E  0000              add [bx+si],al
00001C50  0000              add [bx+si],al
00001C52  0000              add [bx+si],al
00001C54  0000              add [bx+si],al
00001C56  0000              add [bx+si],al
00001C58  0000              add [bx+si],al
00001C5A  0000              add [bx+si],al
00001C5C  0000              add [bx+si],al
00001C5E  0000              add [bx+si],al
00001C60  0000              add [bx+si],al
00001C62  0000              add [bx+si],al
00001C64  0000              add [bx+si],al
00001C66  0000              add [bx+si],al
00001C68  0000              add [bx+si],al
00001C6A  0000              add [bx+si],al
00001C6C  0000              add [bx+si],al
00001C6E  0000              add [bx+si],al
00001C70  0000              add [bx+si],al
00001C72  0000              add [bx+si],al
00001C74  0000              add [bx+si],al
00001C76  0000              add [bx+si],al
00001C78  0000              add [bx+si],al
00001C7A  0000              add [bx+si],al
00001C7C  0000              add [bx+si],al
00001C7E  0000              add [bx+si],al
00001C80  0000              add [bx+si],al
00001C82  0000              add [bx+si],al
00001C84  0000              add [bx+si],al
00001C86  0000              add [bx+si],al
00001C88  0000              add [bx+si],al
00001C8A  0000              add [bx+si],al
00001C8C  0000              add [bx+si],al
00001C8E  0000              add [bx+si],al
00001C90  0000              add [bx+si],al
00001C92  0000              add [bx+si],al
00001C94  0000              add [bx+si],al
00001C96  0000              add [bx+si],al
00001C98  0000              add [bx+si],al
00001C9A  0000              add [bx+si],al
00001C9C  0000              add [bx+si],al
00001C9E  0000              add [bx+si],al
00001CA0  0000              add [bx+si],al
00001CA2  0000              add [bx+si],al
00001CA4  0000              add [bx+si],al
00001CA6  0000              add [bx+si],al
00001CA8  0000              add [bx+si],al
00001CAA  0000              add [bx+si],al
00001CAC  0000              add [bx+si],al
00001CAE  0000              add [bx+si],al
00001CB0  0000              add [bx+si],al
00001CB2  0000              add [bx+si],al
00001CB4  0000              add [bx+si],al
00001CB6  0000              add [bx+si],al
00001CB8  0000              add [bx+si],al
00001CBA  0000              add [bx+si],al
00001CBC  0000              add [bx+si],al
00001CBE  0000              add [bx+si],al
00001CC0  0000              add [bx+si],al
00001CC2  0000              add [bx+si],al
00001CC4  0000              add [bx+si],al
00001CC6  0000              add [bx+si],al
00001CC8  0000              add [bx+si],al
00001CCA  0000              add [bx+si],al
00001CCC  0000              add [bx+si],al
00001CCE  0000              add [bx+si],al
00001CD0  0000              add [bx+si],al
00001CD2  0000              add [bx+si],al
00001CD4  0000              add [bx+si],al
00001CD6  0000              add [bx+si],al
00001CD8  0000              add [bx+si],al
00001CDA  0000              add [bx+si],al
00001CDC  0000              add [bx+si],al
00001CDE  0000              add [bx+si],al
00001CE0  0000              add [bx+si],al
00001CE2  0000              add [bx+si],al
00001CE4  0000              add [bx+si],al
00001CE6  0000              add [bx+si],al
00001CE8  0000              add [bx+si],al
00001CEA  0000              add [bx+si],al
00001CEC  0000              add [bx+si],al
00001CEE  0000              add [bx+si],al
00001CF0  0000              add [bx+si],al
00001CF2  0000              add [bx+si],al
00001CF4  0000              add [bx+si],al
00001CF6  0000              add [bx+si],al
00001CF8  0000              add [bx+si],al
00001CFA  0000              add [bx+si],al
00001CFC  0000              add [bx+si],al
00001CFE  0000              add [bx+si],al
00001D00  0000              add [bx+si],al
00001D02  0000              add [bx+si],al
00001D04  0000              add [bx+si],al
00001D06  0000              add [bx+si],al
00001D08  0000              add [bx+si],al
00001D0A  0000              add [bx+si],al
00001D0C  0000              add [bx+si],al
00001D0E  0000              add [bx+si],al
00001D10  0000              add [bx+si],al
00001D12  0000              add [bx+si],al
00001D14  0000              add [bx+si],al
00001D16  0000              add [bx+si],al
00001D18  0000              add [bx+si],al
00001D1A  0000              add [bx+si],al
00001D1C  0000              add [bx+si],al
00001D1E  0000              add [bx+si],al
00001D20  0000              add [bx+si],al
00001D22  0000              add [bx+si],al
00001D24  0000              add [bx+si],al
00001D26  0000              add [bx+si],al
00001D28  0000              add [bx+si],al
00001D2A  0000              add [bx+si],al
00001D2C  0000              add [bx+si],al
00001D2E  0000              add [bx+si],al
00001D30  0000              add [bx+si],al
00001D32  0000              add [bx+si],al
00001D34  0000              add [bx+si],al
00001D36  0000              add [bx+si],al
00001D38  0000              add [bx+si],al
00001D3A  0000              add [bx+si],al
00001D3C  0000              add [bx+si],al
00001D3E  0000              add [bx+si],al
00001D40  0000              add [bx+si],al
00001D42  0000              add [bx+si],al
00001D44  0000              add [bx+si],al
00001D46  0000              add [bx+si],al
00001D48  0000              add [bx+si],al
00001D4A  0000              add [bx+si],al
00001D4C  0000              add [bx+si],al
00001D4E  0000              add [bx+si],al
00001D50  0000              add [bx+si],al
00001D52  0000              add [bx+si],al
00001D54  0000              add [bx+si],al
00001D56  0000              add [bx+si],al
00001D58  0000              add [bx+si],al
00001D5A  0000              add [bx+si],al
00001D5C  0000              add [bx+si],al
00001D5E  0000              add [bx+si],al
00001D60  0000              add [bx+si],al
00001D62  0000              add [bx+si],al
00001D64  0000              add [bx+si],al
00001D66  0000              add [bx+si],al
00001D68  0000              add [bx+si],al
00001D6A  0000              add [bx+si],al
00001D6C  0000              add [bx+si],al
00001D6E  0000              add [bx+si],al
00001D70  0000              add [bx+si],al
00001D72  0000              add [bx+si],al
00001D74  0000              add [bx+si],al
00001D76  0000              add [bx+si],al
00001D78  0000              add [bx+si],al
00001D7A  0000              add [bx+si],al
00001D7C  0000              add [bx+si],al
00001D7E  0000              add [bx+si],al
00001D80  0000              add [bx+si],al
00001D82  0000              add [bx+si],al
00001D84  0000              add [bx+si],al
00001D86  0000              add [bx+si],al
00001D88  0000              add [bx+si],al
00001D8A  0000              add [bx+si],al
00001D8C  0000              add [bx+si],al
00001D8E  0000              add [bx+si],al
00001D90  0000              add [bx+si],al
00001D92  0000              add [bx+si],al
00001D94  0000              add [bx+si],al
00001D96  0000              add [bx+si],al
00001D98  0000              add [bx+si],al
00001D9A  0000              add [bx+si],al
00001D9C  0000              add [bx+si],al
00001D9E  0000              add [bx+si],al
00001DA0  0000              add [bx+si],al
00001DA2  0000              add [bx+si],al
00001DA4  0000              add [bx+si],al
00001DA6  0000              add [bx+si],al
00001DA8  0000              add [bx+si],al
00001DAA  0000              add [bx+si],al
00001DAC  0000              add [bx+si],al
00001DAE  0000              add [bx+si],al
00001DB0  0000              add [bx+si],al
00001DB2  0000              add [bx+si],al
00001DB4  0000              add [bx+si],al
00001DB6  0000              add [bx+si],al
00001DB8  0000              add [bx+si],al
00001DBA  0000              add [bx+si],al
00001DBC  0000              add [bx+si],al
00001DBE  0000              add [bx+si],al
00001DC0  0000              add [bx+si],al
00001DC2  0000              add [bx+si],al
00001DC4  0000              add [bx+si],al
00001DC6  0000              add [bx+si],al
00001DC8  0000              add [bx+si],al
00001DCA  0000              add [bx+si],al
00001DCC  0000              add [bx+si],al
00001DCE  0000              add [bx+si],al
00001DD0  0000              add [bx+si],al
00001DD2  0000              add [bx+si],al
00001DD4  0000              add [bx+si],al
00001DD6  0000              add [bx+si],al
00001DD8  0000              add [bx+si],al
00001DDA  0000              add [bx+si],al
00001DDC  0000              add [bx+si],al
00001DDE  0000              add [bx+si],al
00001DE0  0000              add [bx+si],al
00001DE2  0000              add [bx+si],al
00001DE4  0000              add [bx+si],al
00001DE6  0000              add [bx+si],al
00001DE8  0000              add [bx+si],al
00001DEA  0000              add [bx+si],al
00001DEC  0000              add [bx+si],al
00001DEE  0000              add [bx+si],al
00001DF0  0000              add [bx+si],al
00001DF2  0000              add [bx+si],al
00001DF4  0000              add [bx+si],al
00001DF6  0000              add [bx+si],al
00001DF8  0000              add [bx+si],al
00001DFA  0000              add [bx+si],al
00001DFC  0000              add [bx+si],al
00001DFE  0000              add [bx+si],al
00001E00  0000              add [bx+si],al
00001E02  0000              add [bx+si],al
00001E04  0000              add [bx+si],al
00001E06  0000              add [bx+si],al
00001E08  0000              add [bx+si],al
00001E0A  0000              add [bx+si],al
00001E0C  0000              add [bx+si],al
00001E0E  0000              add [bx+si],al
00001E10  0000              add [bx+si],al
00001E12  0000              add [bx+si],al
00001E14  0000              add [bx+si],al
00001E16  0000              add [bx+si],al
00001E18  0000              add [bx+si],al
00001E1A  0000              add [bx+si],al
00001E1C  0000              add [bx+si],al
00001E1E  0000              add [bx+si],al
00001E20  0000              add [bx+si],al
00001E22  0000              add [bx+si],al
00001E24  0000              add [bx+si],al
00001E26  0000              add [bx+si],al
00001E28  0000              add [bx+si],al
00001E2A  0000              add [bx+si],al
00001E2C  0000              add [bx+si],al
00001E2E  0000              add [bx+si],al
00001E30  0000              add [bx+si],al
00001E32  0000              add [bx+si],al
00001E34  0000              add [bx+si],al
00001E36  0000              add [bx+si],al
00001E38  0000              add [bx+si],al
00001E3A  0000              add [bx+si],al
00001E3C  0000              add [bx+si],al
00001E3E  0000              add [bx+si],al
00001E40  0000              add [bx+si],al
00001E42  0000              add [bx+si],al
00001E44  0000              add [bx+si],al
00001E46  0000              add [bx+si],al
00001E48  0000              add [bx+si],al
00001E4A  0000              add [bx+si],al
00001E4C  0000              add [bx+si],al
00001E4E  0000              add [bx+si],al
00001E50  0000              add [bx+si],al
00001E52  0000              add [bx+si],al
00001E54  0000              add [bx+si],al
00001E56  0000              add [bx+si],al
00001E58  0000              add [bx+si],al
00001E5A  0000              add [bx+si],al
00001E5C  0000              add [bx+si],al
00001E5E  0000              add [bx+si],al
00001E60  0000              add [bx+si],al
00001E62  0000              add [bx+si],al
00001E64  0000              add [bx+si],al
00001E66  0000              add [bx+si],al
00001E68  0000              add [bx+si],al
00001E6A  0000              add [bx+si],al
00001E6C  0000              add [bx+si],al
00001E6E  0000              add [bx+si],al
00001E70  0000              add [bx+si],al
00001E72  0000              add [bx+si],al
00001E74  0000              add [bx+si],al
00001E76  0000              add [bx+si],al
00001E78  0000              add [bx+si],al
00001E7A  0000              add [bx+si],al
00001E7C  0000              add [bx+si],al
00001E7E  0000              add [bx+si],al
00001E80  0000              add [bx+si],al
00001E82  0000              add [bx+si],al
00001E84  0000              add [bx+si],al
00001E86  0000              add [bx+si],al
00001E88  0000              add [bx+si],al
00001E8A  0000              add [bx+si],al
00001E8C  0000              add [bx+si],al
00001E8E  0000              add [bx+si],al
00001E90  0000              add [bx+si],al
00001E92  0000              add [bx+si],al
00001E94  0000              add [bx+si],al
00001E96  0000              add [bx+si],al
00001E98  0000              add [bx+si],al
00001E9A  0000              add [bx+si],al
00001E9C  0000              add [bx+si],al
00001E9E  0000              add [bx+si],al
00001EA0  0000              add [bx+si],al
00001EA2  0000              add [bx+si],al
00001EA4  0000              add [bx+si],al
00001EA6  0000              add [bx+si],al
00001EA8  0000              add [bx+si],al
00001EAA  0000              add [bx+si],al
00001EAC  0000              add [bx+si],al
00001EAE  0000              add [bx+si],al
00001EB0  0000              add [bx+si],al
00001EB2  0000              add [bx+si],al
00001EB4  0000              add [bx+si],al
00001EB6  0000              add [bx+si],al
00001EB8  0000              add [bx+si],al
00001EBA  0000              add [bx+si],al
00001EBC  0000              add [bx+si],al
00001EBE  0000              add [bx+si],al
00001EC0  0000              add [bx+si],al
00001EC2  0000              add [bx+si],al
00001EC4  0000              add [bx+si],al
00001EC6  0000              add [bx+si],al
00001EC8  0000              add [bx+si],al
00001ECA  0000              add [bx+si],al
00001ECC  0000              add [bx+si],al
00001ECE  0000              add [bx+si],al
00001ED0  0000              add [bx+si],al
00001ED2  0000              add [bx+si],al
00001ED4  0000              add [bx+si],al
00001ED6  0000              add [bx+si],al
00001ED8  0000              add [bx+si],al
00001EDA  0000              add [bx+si],al
00001EDC  0000              add [bx+si],al
00001EDE  0000              add [bx+si],al
00001EE0  0000              add [bx+si],al
00001EE2  0000              add [bx+si],al
00001EE4  0000              add [bx+si],al
00001EE6  0000              add [bx+si],al
00001EE8  0000              add [bx+si],al
00001EEA  0000              add [bx+si],al
00001EEC  0000              add [bx+si],al
00001EEE  0000              add [bx+si],al
00001EF0  0000              add [bx+si],al
00001EF2  0000              add [bx+si],al
00001EF4  0000              add [bx+si],al
00001EF6  0000              add [bx+si],al
00001EF8  0000              add [bx+si],al
00001EFA  0000              add [bx+si],al
00001EFC  0000              add [bx+si],al
00001EFE  0000              add [bx+si],al
00001F00  0000              add [bx+si],al
00001F02  0000              add [bx+si],al
00001F04  0000              add [bx+si],al
00001F06  0000              add [bx+si],al
00001F08  0000              add [bx+si],al
00001F0A  0000              add [bx+si],al
00001F0C  0000              add [bx+si],al
00001F0E  0000              add [bx+si],al
00001F10  0000              add [bx+si],al
00001F12  0000              add [bx+si],al
00001F14  0000              add [bx+si],al
00001F16  0000              add [bx+si],al
00001F18  0000              add [bx+si],al
00001F1A  0000              add [bx+si],al
00001F1C  0000              add [bx+si],al
00001F1E  0000              add [bx+si],al
00001F20  0000              add [bx+si],al
00001F22  0000              add [bx+si],al
00001F24  0000              add [bx+si],al
00001F26  0000              add [bx+si],al
00001F28  0000              add [bx+si],al
00001F2A  0000              add [bx+si],al
00001F2C  0000              add [bx+si],al
00001F2E  0000              add [bx+si],al
00001F30  0000              add [bx+si],al
00001F32  0000              add [bx+si],al
00001F34  0000              add [bx+si],al
00001F36  0000              add [bx+si],al
00001F38  0000              add [bx+si],al
00001F3A  0000              add [bx+si],al
00001F3C  0000              add [bx+si],al
00001F3E  0000              add [bx+si],al
00001F40  0000              add [bx+si],al
00001F42  0000              add [bx+si],al
00001F44  0000              add [bx+si],al
00001F46  0000              add [bx+si],al
00001F48  0000              add [bx+si],al
00001F4A  0000              add [bx+si],al
00001F4C  0000              add [bx+si],al
00001F4E  0000              add [bx+si],al
00001F50  0000              add [bx+si],al
00001F52  0000              add [bx+si],al
00001F54  0000              add [bx+si],al
00001F56  0000              add [bx+si],al
00001F58  0000              add [bx+si],al
00001F5A  0000              add [bx+si],al
00001F5C  0000              add [bx+si],al
00001F5E  0000              add [bx+si],al
00001F60  0000              add [bx+si],al
00001F62  0000              add [bx+si],al
00001F64  0000              add [bx+si],al
00001F66  0000              add [bx+si],al
00001F68  0000              add [bx+si],al
00001F6A  0000              add [bx+si],al
00001F6C  0000              add [bx+si],al
00001F6E  0000              add [bx+si],al
00001F70  0000              add [bx+si],al
00001F72  0000              add [bx+si],al
00001F74  0000              add [bx+si],al
00001F76  0000              add [bx+si],al
00001F78  0000              add [bx+si],al
00001F7A  0000              add [bx+si],al
00001F7C  0000              add [bx+si],al
00001F7E  0000              add [bx+si],al
00001F80  0000              add [bx+si],al
00001F82  0000              add [bx+si],al
00001F84  0000              add [bx+si],al
00001F86  0000              add [bx+si],al
00001F88  0000              add [bx+si],al
00001F8A  0000              add [bx+si],al
00001F8C  0000              add [bx+si],al
00001F8E  0000              add [bx+si],al
00001F90  0000              add [bx+si],al
00001F92  0000              add [bx+si],al
00001F94  0000              add [bx+si],al
00001F96  0000              add [bx+si],al
00001F98  0000              add [bx+si],al
00001F9A  0000              add [bx+si],al
00001F9C  0000              add [bx+si],al
00001F9E  0000              add [bx+si],al
00001FA0  0000              add [bx+si],al
00001FA2  0000              add [bx+si],al
00001FA4  0000              add [bx+si],al
00001FA6  0000              add [bx+si],al
00001FA8  0000              add [bx+si],al
00001FAA  0000              add [bx+si],al
00001FAC  0000              add [bx+si],al
00001FAE  0000              add [bx+si],al
00001FB0  0000              add [bx+si],al
00001FB2  0000              add [bx+si],al
00001FB4  0000              add [bx+si],al
00001FB6  0000              add [bx+si],al
00001FB8  0000              add [bx+si],al
00001FBA  0000              add [bx+si],al
00001FBC  0000              add [bx+si],al
00001FBE  0000              add [bx+si],al
00001FC0  0000              add [bx+si],al
00001FC2  0000              add [bx+si],al
00001FC4  0000              add [bx+si],al
00001FC6  0000              add [bx+si],al
00001FC8  0000              add [bx+si],al
00001FCA  0000              add [bx+si],al
00001FCC  0000              add [bx+si],al
00001FCE  0000              add [bx+si],al
00001FD0  0000              add [bx+si],al
00001FD2  0000              add [bx+si],al
00001FD4  0000              add [bx+si],al
00001FD6  0000              add [bx+si],al
00001FD8  0000              add [bx+si],al
00001FDA  0000              add [bx+si],al
00001FDC  0000              add [bx+si],al
00001FDE  0000              add [bx+si],al
00001FE0  0000              add [bx+si],al
00001FE2  0000              add [bx+si],al
00001FE4  0000              add [bx+si],al
00001FE6  0000              add [bx+si],al
00001FE8  0000              add [bx+si],al
00001FEA  0000              add [bx+si],al
00001FEC  0000              add [bx+si],al
00001FEE  0000              add [bx+si],al
00001FF0  0000              add [bx+si],al
00001FF2  0000              add [bx+si],al
00001FF4  0000              add [bx+si],al
00001FF6  0000              add [bx+si],al
00001FF8  0000              add [bx+si],al
00001FFA  0000              add [bx+si],al
00001FFC  0000              add [bx+si],al
00001FFE  0000              add [bx+si],al
